Archive member included to satisfy reference by file (symbol)

C:/devkitPro/libctru/lib\libcitro3d.a(base.o)
                              main.o (C3D_Init)
C:/devkitPro/libctru/lib\libcitro3d.a(renderqueue.o)
                              C:/devkitPro/libctru/lib\libcitro3d.a(base.o) (C3Di_RenderQueueEnableVBlank)
C:/devkitPro/libctru/lib\libcitro3d.a(texture.o)
                              C:/devkitPro/libctru/lib\libcitro3d.a(base.o) (C3Di_SetTex)
C:/devkitPro/libctru/lib\libcitro3d.a(framebuffer.o)
                              C:/devkitPro/libctru/lib\libcitro3d.a(renderqueue.o) (C3D_CalcColorBufSize)
C:/devkitPro/libctru/lib\libcitro3d.a(texenv.o)
                              main.o (C3D_GetTexEnv)
C:/devkitPro/libctru/lib\libcitro3d.a(buffers.o)
                              main.o (BufInfo_Init)
C:/devkitPro/libctru/lib\libcitro3d.a(drawArrays.o)
                              main.o (C3D_DrawArrays)
C:/devkitPro/libctru/lib\libcitro3d.a(effect.o)
                              C:/devkitPro/libctru/lib\libcitro3d.a(base.o) (C3D_DepthMap)
C:/devkitPro/libctru/lib\libcitro3d.a(attribs.o)
                              main.o (AttrInfo_Init)
C:/devkitPro/libctru/lib\libcitro3d.a(immediate.o)
                              C:/devkitPro/libctru/lib\libcitro3d.a(base.o) (C3D_ImmSendAttrib)
C:/devkitPro/libctru/lib\libcitro3d.a(uniforms.o)
                              C:/devkitPro/libctru/lib\libcitro3d.a(base.o) (C3D_UpdateUniforms)
C:/devkitPro/libctru/lib\libcitro3d.a(mtx_orthotilt.o)
                              main.o (Mtx_OrthoTilt)
C:/devkitPro/libctru/lib\libctru.a(vram.o)
                              C:/devkitPro/libctru/lib\libcitro3d.a(renderqueue.o) (vramAlloc)
C:/devkitPro/libctru/lib\libctru.a(linear.o)
                              main.o (linearAlloc)
C:/devkitPro/libctru/lib\libctru.a(mem_pool.o)
                              C:/devkitPro/libctru/lib\libctru.a(vram.o) (MemPool::Allocate(MemChunk&, unsigned long, int))
C:/devkitPro/libctru/lib\libctru.a(os.o)
                              C:/devkitPro/libctru/lib\libcitro3d.a(texture.o) (osConvertVirtToPhys)
C:/devkitPro/libctru/lib\libctru.a(gfx.o)
                              main.o (gfxInitDefault)
C:/devkitPro/libctru/lib\libctru.a(shaderProgram.o)
                              main.o (shaderInstanceGetUniformLocation)
C:/devkitPro/libctru/lib\libctru.a(shbin.o)
                              main.o (DVLB_ParseFile)
C:/devkitPro/libctru/lib\libctru.a(gx.o)
                              C:/devkitPro/libctru/lib\libcitro3d.a(renderqueue.o) (GX_BindQueue)
C:/devkitPro/libctru/lib\libctru.a(gxqueue.o)
                              C:/devkitPro/libctru/lib\libcitro3d.a(renderqueue.o) (gxCmdQueueClear)
C:/devkitPro/libctru/lib\libctru.a(gpu.o)
                              C:/devkitPro/libctru/lib\libcitro3d.a(base.o) (GPUCMD_Add)
C:/devkitPro/libctru/lib\libctru.a(gspgpu.o)
                              C:/devkitPro/libctru/lib\libctru.a(gfx.o) (gspInit)
C:/devkitPro/libctru/lib\libctru.a(apt.o)
                              C:/devkitPro/libctru/lib\libcitro3d.a(base.o) (aptHook)
C:/devkitPro/libctru/lib\libctru.a(hid.o)
                              main.o (hidScanInput)
C:/devkitPro/libctru/lib\libctru.a(ptmsysm.o)
                              C:/devkitPro/libctru/lib\libctru.a(os.o) (ptmSysmInit)
C:/devkitPro/libctru/lib\libctru.a(rbtree_init.o)
                              C:/devkitPro/libctru/lib\libctru.a(vram.o) (rbtree_init)
C:/devkitPro/libctru/lib\libctru.a(rbtree_insert.o)
                              C:/devkitPro/libctru/lib\libctru.a(vram.o) (rbtree_insert)
C:/devkitPro/libctru/lib\libctru.a(rbtree_rotate.o)
                              C:/devkitPro/libctru/lib\libctru.a(rbtree_insert.o) (rbtree_rotate)
C:/devkitPro/libctru/lib\libctru.a(rbtree_remove.o)
                              C:/devkitPro/libctru/lib\libctru.a(vram.o) (rbtree_remove)
C:/devkitPro/libctru/lib\libctru.a(rbtree_find.o)
                              C:/devkitPro/libctru/lib\libctru.a(vram.o) (rbtree_find)
C:/devkitPro/libctru/lib\libctru.a(allocateHeaps.o)
                              C:/devkitPro/libctru/lib\libcitro3d.a(renderqueue.o) (__ctru_linear_heap_size)
C:/devkitPro/libctru/lib\libctru.a(ctru_init.o)
                              C:/devkitPro/libctru/lib\libctru.a(apt.o) (__system_retAddr)
C:/devkitPro/libctru/lib\libctru.a(initArgv.o)
                              C:/devkitPro/libctru/lib\libctru.a(ctru_init.o) (__system_initArgv)
C:/devkitPro/libctru/lib\libctru.a(svc.o)
                              C:/devkitPro/libctru/lib\libctru.a(allocateHeaps.o) (svcControlMemory)
C:/devkitPro/libctru/lib\libctru.a(stack_adjust.o)
                              c:/devkitpro/devkitarm/bin/../lib/gcc/arm-none-eabi/10.2.0/../../../../arm-none-eabi/lib/armv6k/fpu/3dsx_crt0.o (initSystem)
C:/devkitPro/libctru/lib\libctru.a(synchronization.o)
                              C:/devkitPro/libctru/lib\libctru.a(ctru_init.o) (__sync_init)
C:/devkitPro/libctru/lib\libctru.a(srv.o)
                              C:/devkitPro/libctru/lib\libctru.a(apt.o) (srvInit)
C:/devkitPro/libctru/lib\libctru.a(thread.o)
                              C:/devkitPro/libctru/lib\libctru.a(gspgpu.o) (threadCreate)
C:/devkitPro/libctru/lib\libctru.a(mappable.o)
                              C:/devkitPro/libctru/lib\libctru.a(allocateHeaps.o) (mappableInit)
C:/devkitPro/libctru/lib\libctru.a(irrst.o)
                              C:/devkitPro/libctru/lib\libctru.a(hid.o) (irrstInit)
C:/devkitPro/libctru/lib\libctru.a(srvpm.o)
                              C:/devkitPro/libctru/lib\libctru.a(srv.o) (srvPmGetSessionHandle)
C:/devkitPro/libctru/lib\libctru.a(rbtree_iterator.o)
                              C:/devkitPro/libctru/lib\libctru.a(rbtree_remove.o) (rbtree_node_next)
C:/devkitPro/libctru/lib\libctru.a(appInit.o)
                              C:/devkitPro/libctru/lib\libctru.a(stack_adjust.o) (__appInit)
C:/devkitPro/libctru/lib\libctru.a(syscalls.o)
                              C:/devkitPro/libctru/lib\libctru.a(ctru_init.o) (__system_initSyscalls)
C:/devkitPro/libctru/lib\libctru.a(appExit.o)
                              C:/devkitPro/libctru/lib\libctru.a(stack_adjust.o) (__appExit)
C:/devkitPro/libctru/lib\libctru.a(ctru_exit.o)
                              C:/devkitPro/libctru/lib\libctru.a(stack_adjust.o) (__libctru_exit)
C:/devkitPro/libctru/lib\libctru.a(env.o)
                              C:/devkitPro/libctru/lib\libctru.a(srv.o) (envGetHandle)
C:/devkitPro/libctru/lib\libctru.a(archive_dev.o)
                              C:/devkitPro/libctru/lib\libctru.a(appInit.o) (archiveMountSdmc)
C:/devkitPro/libctru/lib\libctru.a(fs.o)
                              C:/devkitPro/libctru/lib\libctru.a(appInit.o) (fsInit)
C:/devkitPro/libctru/lib\libctru.a(utf16_to_utf8.o)
                              C:/devkitPro/libctru/lib\libctru.a(archive_dev.o) (utf16_to_utf8)
C:/devkitPro/libctru/lib\libctru.a(decode_utf16.o)
                              C:/devkitPro/libctru/lib\libctru.a(utf16_to_utf8.o) (decode_utf16)
C:/devkitPro/libctru/lib\libctru.a(decode_utf8.o)
                              C:/devkitPro/libctru/lib\libctru.a(archive_dev.o) (decode_utf8)
C:/devkitPro/libctru/lib\libctru.a(utf8_to_utf16.o)
                              C:/devkitPro/libctru/lib\libctru.a(archive_dev.o) (utf8_to_utf16)
C:/devkitPro/libctru/lib\libctru.a(readtp.o)
                              C:/devkitPro/libctru/lib\libctru.a(archive_dev.o) (__aeabi_read_tp)
C:/devkitPro/libctru/lib\libctru.a(path_buf.o)
                              C:/devkitPro/libctru/lib\libctru.a(archive_dev.o) (__ctru_dev_utf16_buf)
C:/devkitPro/libctru/lib\libctru.a(encode_utf16.o)
                              C:/devkitPro/libctru/lib\libctru.a(utf8_to_utf16.o) (encode_utf16)
C:/devkitPro/libctru/lib\libctru.a(encode_utf8.o)
                              C:/devkitPro/libctru/lib\libctru.a(utf16_to_utf8.o) (encode_utf8)
c:/devkitpro/devkitarm/bin/../lib/gcc/arm-none-eabi/10.2.0/armv6k/fpu\libgcc.a(_aeabi_ldivmod.o)
                              C:/devkitPro/libctru/lib\libctru.a(os.o) (__aeabi_ldivmod)
c:/devkitpro/devkitarm/bin/../lib/gcc/arm-none-eabi/10.2.0/armv6k/fpu\libgcc.a(_aeabi_uldivmod.o)
                              C:/devkitPro/libctru/lib\libctru.a(archive_dev.o) (__aeabi_uldivmod)
c:/devkitpro/devkitarm/bin/../lib/gcc/arm-none-eabi/10.2.0/armv6k/fpu\libgcc.a(_udivmoddi4.o)
                              c:/devkitpro/devkitarm/bin/../lib/gcc/arm-none-eabi/10.2.0/armv6k/fpu\libgcc.a(_aeabi_ldivmod.o) (__udivmoddi4)
c:/devkitpro/devkitarm/bin/../lib/gcc/arm-none-eabi/10.2.0/armv6k/fpu\libgcc.a(_dvmd_tls.o)
                              c:/devkitpro/devkitarm/bin/../lib/gcc/arm-none-eabi/10.2.0/armv6k/fpu\libgcc.a(_aeabi_ldivmod.o) (__aeabi_ldiv0)
c:/devkitpro/devkitarm/bin/../lib/gcc/arm-none-eabi/10.2.0/../../../../arm-none-eabi/lib/armv6k/fpu\libg.a(lib_a-bsearch.o)
                              C:/devkitPro/libctru/lib\libctru.a(archive_dev.o) (bsearch)
c:/devkitpro/devkitarm/bin/../lib/gcc/arm-none-eabi/10.2.0/../../../../arm-none-eabi/lib/armv6k/fpu\libg.a(lib_a-calloc.o)
                              C:/devkitPro/libctru/lib\libcitro3d.a(renderqueue.o) (calloc)
c:/devkitpro/devkitarm/bin/../lib/gcc/arm-none-eabi/10.2.0/../../../../arm-none-eabi/lib/armv6k/fpu\libg.a(lib_a-callocr.o)
                              c:/devkitpro/devkitarm/bin/../lib/gcc/arm-none-eabi/10.2.0/../../../../arm-none-eabi/lib/armv6k/fpu\libg.a(lib_a-calloc.o) (_calloc_r)
c:/devkitpro/devkitarm/bin/../lib/gcc/arm-none-eabi/10.2.0/../../../../arm-none-eabi/lib/armv6k/fpu\libg.a(lib_a-errno.o)
                              C:/devkitPro/libctru/lib\libctru.a(archive_dev.o) (__errno)
c:/devkitpro/devkitarm/bin/../lib/gcc/arm-none-eabi/10.2.0/../../../../arm-none-eabi/lib/armv6k/fpu\libg.a(lib_a-exit.o)
                              c:/devkitpro/devkitarm/bin/../lib/gcc/arm-none-eabi/10.2.0/../../../../arm-none-eabi/lib/armv6k/fpu/3dsx_crt0.o (exit)
c:/devkitpro/devkitarm/bin/../lib/gcc/arm-none-eabi/10.2.0/../../../../arm-none-eabi/lib/armv6k/fpu\libg.a(lib_a-fini.o)
                              C:/devkitPro/libctru/lib\libctru.a(stack_adjust.o) (__libc_fini_array)
c:/devkitpro/devkitarm/bin/../lib/gcc/arm-none-eabi/10.2.0/../../../../arm-none-eabi/lib/armv6k/fpu\libg.a(lib_a-impure.o)
                              c:/devkitpro/devkitarm/bin/../lib/gcc/arm-none-eabi/10.2.0/../../../../arm-none-eabi/lib/armv6k/fpu\libg.a(lib_a-exit.o) (_global_impure_ptr)
c:/devkitpro/devkitarm/bin/../lib/gcc/arm-none-eabi/10.2.0/../../../../arm-none-eabi/lib/armv6k/fpu\libg.a(lib_a-init.o)
                              C:/devkitPro/libctru/lib\libctru.a(stack_adjust.o) (__libc_init_array)
c:/devkitpro/devkitarm/bin/../lib/gcc/arm-none-eabi/10.2.0/../../../../arm-none-eabi/lib/armv6k/fpu\libg.a(lib_a-malign.o)
                              C:/devkitPro/libctru/lib\libctru.a(thread.o) (memalign)
c:/devkitpro/devkitarm/bin/../lib/gcc/arm-none-eabi/10.2.0/../../../../arm-none-eabi/lib/armv6k/fpu\libg.a(lib_a-malignr.o)
                              c:/devkitpro/devkitarm/bin/../lib/gcc/arm-none-eabi/10.2.0/../../../../arm-none-eabi/lib/armv6k/fpu\libg.a(lib_a-malign.o) (_memalign_r)
c:/devkitpro/devkitarm/bin/../lib/gcc/arm-none-eabi/10.2.0/../../../../arm-none-eabi/lib/armv6k/fpu\libg.a(lib_a-malloc.o)
                              C:/devkitPro/libctru/lib\libcitro3d.a(base.o) (malloc)
c:/devkitpro/devkitarm/bin/../lib/gcc/arm-none-eabi/10.2.0/../../../../arm-none-eabi/lib/armv6k/fpu\libg.a(lib_a-mallocr.o)
                              c:/devkitpro/devkitarm/bin/../lib/gcc/arm-none-eabi/10.2.0/../../../../arm-none-eabi/lib/armv6k/fpu\libg.a(lib_a-callocr.o) (_malloc_r)
c:/devkitpro/devkitarm/bin/../lib/gcc/arm-none-eabi/10.2.0/../../../../arm-none-eabi/lib/armv6k/fpu\libg.a(lib_a-memcpy-stub.o)
                              C:/devkitPro/libctru/lib\libcitro3d.a(texture.o) (memcpy)
c:/devkitpro/devkitarm/bin/../lib/gcc/arm-none-eabi/10.2.0/../../../../arm-none-eabi/lib/armv6k/fpu\libg.a(lib_a-memset.o)
                              C:/devkitPro/libctru/lib\libcitro3d.a(buffers.o) (memset)
c:/devkitpro/devkitarm/bin/../lib/gcc/arm-none-eabi/10.2.0/../../../../arm-none-eabi/lib/armv6k/fpu\libg.a(lib_a-mlock.o)
                              c:/devkitpro/devkitarm/bin/../lib/gcc/arm-none-eabi/10.2.0/../../../../arm-none-eabi/lib/armv6k/fpu\libg.a(lib_a-malignr.o) (__malloc_lock)
c:/devkitpro/devkitarm/bin/../lib/gcc/arm-none-eabi/10.2.0/../../../../arm-none-eabi/lib/armv6k/fpu\libg.a(lib_a-strcmp.o)
                              C:/devkitPro/libctru/lib\libctru.a(shbin.o) (strcmp)
c:/devkitpro/devkitarm/bin/../lib/gcc/arm-none-eabi/10.2.0/../../../../arm-none-eabi/lib/armv6k/fpu\libg.a(lib_a-strlen-stub.o)
                              C:/devkitPro/libctru/lib\libctru.a(archive_dev.o) (strlen)
c:/devkitpro/devkitarm/bin/../lib/gcc/arm-none-eabi/10.2.0/../../../../arm-none-eabi/lib/armv6k/fpu\libg.a(lib_a-strncat.o)
                              C:/devkitPro/libctru/lib\libctru.a(archive_dev.o) (strncat)
c:/devkitpro/devkitarm/bin/../lib/gcc/arm-none-eabi/10.2.0/../../../../arm-none-eabi/lib/armv6k/fpu\libg.a(lib_a-strncmp.o)
                              C:/devkitPro/libctru/lib\libctru.a(archive_dev.o) (strncmp)
c:/devkitpro/devkitarm/bin/../lib/gcc/arm-none-eabi/10.2.0/../../../../arm-none-eabi/lib/armv6k/fpu\libg.a(lib_a-strncpy.o)
                              C:/devkitPro/libctru/lib\libctru.a(srv.o) (strncpy)
c:/devkitpro/devkitarm/bin/../lib/gcc/arm-none-eabi/10.2.0/../../../../arm-none-eabi/lib/armv6k/fpu\libg.a(lib_a-strnlen.o)
                              C:/devkitPro/libctru/lib\libctru.a(srv.o) (strnlen)
c:/devkitpro/devkitarm/bin/../lib/gcc/arm-none-eabi/10.2.0/../../../../arm-none-eabi/lib/armv6k/fpu\libg.a(lib_a-__call_atexit.o)
                              c:/devkitpro/devkitarm/bin/../lib/gcc/arm-none-eabi/10.2.0/../../../../arm-none-eabi/lib/armv6k/fpu\libg.a(lib_a-exit.o) (__call_exitprocs)
c:/devkitpro/devkitarm/bin/../lib/gcc/arm-none-eabi/10.2.0/../../../../arm-none-eabi/lib/armv6k/fpu\libg.a(lib_a-freer.o)
                              c:/devkitpro/devkitarm/bin/../lib/gcc/arm-none-eabi/10.2.0/../../../../arm-none-eabi/lib/armv6k/fpu\libg.a(lib_a-malignr.o) (_free_r)
c:/devkitpro/devkitarm/bin/../lib/gcc/arm-none-eabi/10.2.0/../../../../arm-none-eabi/lib/armv6k/fpu\libsysbase.a(iosupport.o)
                              C:/devkitPro/libctru/lib\libctru.a(archive_dev.o) (setDefaultDevice)
c:/devkitpro/devkitarm/bin/../lib/gcc/arm-none-eabi/10.2.0/../../../../arm-none-eabi/lib/armv6k/fpu\libsysbase.a(sbrk.o)
                              c:/devkitpro/devkitarm/bin/../lib/gcc/arm-none-eabi/10.2.0/../../../../arm-none-eabi/lib/armv6k/fpu\libg.a(lib_a-mallocr.o) (_sbrk_r)
c:/devkitpro/devkitarm/bin/../lib/gcc/arm-none-eabi/10.2.0/../../../../arm-none-eabi/lib/armv6k/fpu\libsysbase.a(_exit.o)
                              c:/devkitpro/devkitarm/bin/../lib/gcc/arm-none-eabi/10.2.0/../../../../arm-none-eabi/lib/armv6k/fpu\libg.a(lib_a-exit.o) (_exit)
c:/devkitpro/devkitarm/bin/../lib/gcc/arm-none-eabi/10.2.0/../../../../arm-none-eabi/lib/armv6k/fpu\libsysbase.a(malloc_vars.o)
                              C:/devkitPro/libctru/lib\libctru.a(allocateHeaps.o) (fake_heap_start)
c:/devkitpro/devkitarm/bin/../lib/gcc/arm-none-eabi/10.2.0/../../../../arm-none-eabi/lib/armv6k/fpu\libsysbase.a(chdir.o)
                              C:/devkitPro/libctru/lib\libctru.a(archive_dev.o) (chdir)
c:/devkitpro/devkitarm/bin/../lib/gcc/arm-none-eabi/10.2.0/../../../../arm-none-eabi/lib/armv6k/fpu\libsysbase.a(syscall_support.o)
                              c:/devkitpro/devkitarm/bin/../lib/gcc/arm-none-eabi/10.2.0/../../../../arm-none-eabi/lib/armv6k/fpu\libg.a(lib_a-mlock.o) (__libc_lock_acquire_recursive)
c:/devkitpro/devkitarm/bin/../lib/gcc/arm-none-eabi/10.2.0/../../../../arm-none-eabi/lib/armv6k/fpu\libsysbase.a(getreent.o)
                              c:/devkitpro/devkitarm/bin/../lib/gcc/arm-none-eabi/10.2.0/../../../../arm-none-eabi/lib/armv6k/fpu\libg.a(lib_a-calloc.o) (__getreent)
c:/devkitpro/devkitarm/bin/../lib/gcc/arm-none-eabi/10.2.0/armv6k/fpu\libgcc.a(_udivsi3.o)
                              c:/devkitpro/devkitarm/bin/../lib/gcc/arm-none-eabi/10.2.0/../../../../arm-none-eabi/lib/armv6k/fpu\libg.a(lib_a-malignr.o) (__aeabi_uidivmod)
c:/devkitpro/devkitarm/bin/../lib/gcc/arm-none-eabi/10.2.0/../../../../arm-none-eabi/lib/armv6k/fpu\libg.a(lib_a-ctype_.o)
                              c:/devkitpro/devkitarm/bin/../lib/gcc/arm-none-eabi/10.2.0/../../../../arm-none-eabi/lib/armv6k/fpu\libsysbase.a(iosupport.o) (_ctype_)
c:/devkitpro/devkitarm/bin/../lib/gcc/arm-none-eabi/10.2.0/../../../../arm-none-eabi/lib/armv6k/fpu\libg.a(lib_a-strchr.o)
                              c:/devkitpro/devkitarm/bin/../lib/gcc/arm-none-eabi/10.2.0/../../../../arm-none-eabi/lib/armv6k/fpu\libsysbase.a(iosupport.o) (strchr)
c:/devkitpro/devkitarm/bin/../lib/gcc/arm-none-eabi/10.2.0/../../../../arm-none-eabi/lib/armv6k/fpu\libg.a(lib_a-strrchr.o)
                              c:/devkitpro/devkitarm/bin/../lib/gcc/arm-none-eabi/10.2.0/../../../../arm-none-eabi/lib/armv6k/fpu\libsysbase.a(chdir.o) (strrchr)

Discarded input sections

 .text          0x0000000000000000        0x0 c:/devkitpro/devkitarm/bin/../lib/gcc/arm-none-eabi/10.2.0/../../../../arm-none-eabi/lib/armv6k/fpu/3dsx_crt0.o
 .data          0x0000000000000000        0x0 c:/devkitpro/devkitarm/bin/../lib/gcc/arm-none-eabi/10.2.0/../../../../arm-none-eabi/lib/armv6k/fpu/3dsx_crt0.o
 .bss           0x0000000000000000        0x0 c:/devkitpro/devkitarm/bin/../lib/gcc/arm-none-eabi/10.2.0/../../../../arm-none-eabi/lib/armv6k/fpu/3dsx_crt0.o
 .text          0x0000000000000000        0x0 c:/devkitpro/devkitarm/bin/../lib/gcc/arm-none-eabi/10.2.0/armv6k/fpu/crti.o
 .data          0x0000000000000000        0x0 c:/devkitpro/devkitarm/bin/../lib/gcc/arm-none-eabi/10.2.0/armv6k/fpu/crti.o
 .bss           0x0000000000000000        0x0 c:/devkitpro/devkitarm/bin/../lib/gcc/arm-none-eabi/10.2.0/armv6k/fpu/crti.o
 .text          0x0000000000000000        0x0 c:/devkitpro/devkitarm/bin/../lib/gcc/arm-none-eabi/10.2.0/armv6k/fpu/crtbegin.o
 .data          0x0000000000000000        0x0 c:/devkitpro/devkitarm/bin/../lib/gcc/arm-none-eabi/10.2.0/armv6k/fpu/crtbegin.o
 .bss           0x0000000000000000        0x0 c:/devkitpro/devkitarm/bin/../lib/gcc/arm-none-eabi/10.2.0/armv6k/fpu/crtbegin.o
 .data.__dso_handle
                0x0000000000000000        0x4 c:/devkitpro/devkitarm/bin/../lib/gcc/arm-none-eabi/10.2.0/armv6k/fpu/crtbegin.o
 .comment       0x0000000000000000       0x24 c:/devkitpro/devkitarm/bin/../lib/gcc/arm-none-eabi/10.2.0/armv6k/fpu/crtbegin.o
 .text          0x0000000000000000        0x0 vshader.shbin.o
 .data          0x0000000000000000        0x0 vshader.shbin.o
 .bss           0x0000000000000000        0x0 vshader.shbin.o
 .text          0x0000000000000000        0x0 main.o
 .data          0x0000000000000000        0x0 main.o
 .comment       0x0000000000000000       0x24 main.o
 .text          0x0000000000000000        0x0 C:/devkitPro/libctru/lib\libcitro3d.a(base.o)
 .data          0x0000000000000000        0x0 C:/devkitPro/libctru/lib\libcitro3d.a(base.o)
 .bss           0x0000000000000000        0x0 C:/devkitPro/libctru/lib\libcitro3d.a(base.o)
 .text.C3D_SetScissor
                0x0000000000000000       0x4c C:/devkitPro/libctru/lib\libcitro3d.a(base.o)
 .text.C3D_GetCmdBufUsage
                0x0000000000000000       0x10 C:/devkitPro/libctru/lib\libcitro3d.a(base.o)
 .comment       0x0000000000000000       0x24 C:/devkitPro/libctru/lib\libcitro3d.a(base.o)
 .text          0x0000000000000000        0x0 C:/devkitPro/libctru/lib\libcitro3d.a(renderqueue.o)
 .data          0x0000000000000000        0x0 C:/devkitPro/libctru/lib\libcitro3d.a(renderqueue.o)
 .bss           0x0000000000000000        0x0 C:/devkitPro/libctru/lib\libcitro3d.a(renderqueue.o)
 .text.C3D_FrameSync
                0x0000000000000000       0x30 C:/devkitPro/libctru/lib\libcitro3d.a(renderqueue.o)
 .text.C3D_FrameCounter
                0x0000000000000000       0x10 C:/devkitPro/libctru/lib\libcitro3d.a(renderqueue.o)
 .text.C3D_FrameRate
                0x0000000000000000       0x44 C:/devkitPro/libctru/lib\libcitro3d.a(renderqueue.o)
 .text.C3D_FrameSplit
                0x0000000000000000       0x58 C:/devkitPro/libctru/lib\libcitro3d.a(renderqueue.o)
 .text.C3D_FrameEndHook
                0x0000000000000000       0x1c C:/devkitPro/libctru/lib\libcitro3d.a(renderqueue.o)
 .text.C3D_GetDrawingTime
                0x0000000000000000       0x18 C:/devkitPro/libctru/lib\libcitro3d.a(renderqueue.o)
 .text.C3D_GetProcessingTime
                0x0000000000000000       0x18 C:/devkitPro/libctru/lib\libcitro3d.a(renderqueue.o)
 .text.C3D_RenderTargetCreateFromTex
                0x0000000000000000       0xdc C:/devkitPro/libctru/lib\libcitro3d.a(renderqueue.o)
 .text.C3D_RenderTargetDelete
                0x0000000000000000       0xf0 C:/devkitPro/libctru/lib\libcitro3d.a(renderqueue.o)
 .text.C3D_SyncDisplayTransfer
                0x0000000000000000       0xf0 C:/devkitPro/libctru/lib\libcitro3d.a(renderqueue.o)
 .text.C3D_SyncTextureCopy
                0x0000000000000000       0xfc C:/devkitPro/libctru/lib\libcitro3d.a(renderqueue.o)
 .text.C3D_SyncMemoryFill
                0x0000000000000000      0x10c C:/devkitPro/libctru/lib\libcitro3d.a(renderqueue.o)
 .comment       0x0000000000000000       0x24 C:/devkitPro/libctru/lib\libcitro3d.a(renderqueue.o)
 .text          0x0000000000000000        0x0 C:/devkitPro/libctru/lib\libcitro3d.a(texture.o)
 .data          0x0000000000000000        0x0 C:/devkitPro/libctru/lib\libcitro3d.a(texture.o)
 .bss           0x0000000000000000        0x0 C:/devkitPro/libctru/lib\libcitro3d.a(texture.o)
 .text.C3D_TexInitWithParams
                0x0000000000000000      0x2a0 C:/devkitPro/libctru/lib\libcitro3d.a(texture.o)
 .text.C3D_TexLoadImage
                0x0000000000000000       0xc8 C:/devkitPro/libctru/lib\libcitro3d.a(texture.o)
 .text.C3D_TexGenerateMipmap
                0x0000000000000000      0x340 C:/devkitPro/libctru/lib\libcitro3d.a(texture.o)
 .text.C3D_TexBind
                0x0000000000000000       0x44 C:/devkitPro/libctru/lib\libcitro3d.a(texture.o)
 .text.C3D_TexFlush
                0x0000000000000000       0x44 C:/devkitPro/libctru/lib\libcitro3d.a(texture.o)
 .text.C3D_TexDelete
                0x0000000000000000       0x74 C:/devkitPro/libctru/lib\libcitro3d.a(texture.o)
 .text.C3D_TexShadowParams
                0x0000000000000000       0x5c C:/devkitPro/libctru/lib\libcitro3d.a(texture.o)
 .rodata.CSWTCH.18
                0x0000000000000000       0x38 C:/devkitPro/libctru/lib\libcitro3d.a(texture.o)
 .comment       0x0000000000000000       0x24 C:/devkitPro/libctru/lib\libcitro3d.a(texture.o)
 .text          0x0000000000000000        0x0 C:/devkitPro/libctru/lib\libcitro3d.a(framebuffer.o)
 .data          0x0000000000000000        0x0 C:/devkitPro/libctru/lib\libcitro3d.a(framebuffer.o)
 .bss           0x0000000000000000        0x0 C:/devkitPro/libctru/lib\libcitro3d.a(framebuffer.o)
 .text.C3D_GetFrameBuf
                0x0000000000000000       0x20 C:/devkitPro/libctru/lib\libcitro3d.a(framebuffer.o)
 .text.C3D_FrameBufTex
                0x0000000000000000       0x9c C:/devkitPro/libctru/lib\libcitro3d.a(framebuffer.o)
 .comment       0x0000000000000000       0x24 C:/devkitPro/libctru/lib\libcitro3d.a(framebuffer.o)
 .text          0x0000000000000000        0x0 C:/devkitPro/libctru/lib\libcitro3d.a(texenv.o)
 .data          0x0000000000000000        0x0 C:/devkitPro/libctru/lib\libcitro3d.a(texenv.o)
 .bss           0x0000000000000000        0x0 C:/devkitPro/libctru/lib\libcitro3d.a(texenv.o)
 .text.C3D_SetTexEnv
                0x0000000000000000       0x8c C:/devkitPro/libctru/lib\libcitro3d.a(texenv.o)
 .text.C3D_DirtyTexEnv
                0x0000000000000000       0x50 C:/devkitPro/libctru/lib\libcitro3d.a(texenv.o)
 .text.C3D_TexEnvBufUpdate
                0x0000000000000000       0x44 C:/devkitPro/libctru/lib\libcitro3d.a(texenv.o)
 .text.C3D_TexEnvBufColor
                0x0000000000000000       0x20 C:/devkitPro/libctru/lib\libcitro3d.a(texenv.o)
 .comment       0x0000000000000000       0x24 C:/devkitPro/libctru/lib\libcitro3d.a(texenv.o)
 .text          0x0000000000000000        0x0 C:/devkitPro/libctru/lib\libcitro3d.a(buffers.o)
 .data          0x0000000000000000        0x0 C:/devkitPro/libctru/lib\libcitro3d.a(buffers.o)
 .bss           0x0000000000000000        0x0 C:/devkitPro/libctru/lib\libcitro3d.a(buffers.o)
 .text.C3D_SetBufInfo
                0x0000000000000000       0x40 C:/devkitPro/libctru/lib\libcitro3d.a(buffers.o)
 .comment       0x0000000000000000       0x24 C:/devkitPro/libctru/lib\libcitro3d.a(buffers.o)
 .text          0x0000000000000000        0x0 C:/devkitPro/libctru/lib\libcitro3d.a(drawArrays.o)
 .data          0x0000000000000000        0x0 C:/devkitPro/libctru/lib\libcitro3d.a(drawArrays.o)
 .bss           0x0000000000000000        0x0 C:/devkitPro/libctru/lib\libcitro3d.a(drawArrays.o)
 .comment       0x0000000000000000       0x24 C:/devkitPro/libctru/lib\libcitro3d.a(drawArrays.o)
 .text          0x0000000000000000        0x0 C:/devkitPro/libctru/lib\libcitro3d.a(effect.o)
 .data          0x0000000000000000        0x0 C:/devkitPro/libctru/lib\libcitro3d.a(effect.o)
 .bss           0x0000000000000000        0x0 C:/devkitPro/libctru/lib\libcitro3d.a(effect.o)
 .text.C3D_ColorLogicOp
                0x0000000000000000       0x28 C:/devkitPro/libctru/lib\libcitro3d.a(effect.o)
 .comment       0x0000000000000000       0x24 C:/devkitPro/libctru/lib\libcitro3d.a(effect.o)
 .text          0x0000000000000000        0x0 C:/devkitPro/libctru/lib\libcitro3d.a(attribs.o)
 .data          0x0000000000000000        0x0 C:/devkitPro/libctru/lib\libcitro3d.a(attribs.o)
 .bss           0x0000000000000000        0x0 C:/devkitPro/libctru/lib\libcitro3d.a(attribs.o)
 .text.C3D_SetAttrInfo
                0x0000000000000000       0x54 C:/devkitPro/libctru/lib\libcitro3d.a(attribs.o)
 .comment       0x0000000000000000       0x24 C:/devkitPro/libctru/lib\libcitro3d.a(attribs.o)
 .text          0x0000000000000000        0x0 C:/devkitPro/libctru/lib\libcitro3d.a(immediate.o)
 .data          0x0000000000000000        0x0 C:/devkitPro/libctru/lib\libcitro3d.a(immediate.o)
 .bss           0x0000000000000000        0x0 C:/devkitPro/libctru/lib\libcitro3d.a(immediate.o)
 .text.C3D_ImmDrawBegin
                0x0000000000000000       0xb8 C:/devkitPro/libctru/lib\libcitro3d.a(immediate.o)
 .text.C3D_ImmDrawEnd
                0x0000000000000000       0x70 C:/devkitPro/libctru/lib\libcitro3d.a(immediate.o)
 .comment       0x0000000000000000       0x24 C:/devkitPro/libctru/lib\libcitro3d.a(immediate.o)
 .text          0x0000000000000000        0x0 C:/devkitPro/libctru/lib\libcitro3d.a(uniforms.o)
 .data          0x0000000000000000        0x0 C:/devkitPro/libctru/lib\libcitro3d.a(uniforms.o)
 .bss           0x0000000000000000        0x0 C:/devkitPro/libctru/lib\libcitro3d.a(uniforms.o)
 .comment       0x0000000000000000       0x24 C:/devkitPro/libctru/lib\libcitro3d.a(uniforms.o)
 .text          0x0000000000000000        0x0 C:/devkitPro/libctru/lib\libcitro3d.a(mtx_orthotilt.o)
 .data          0x0000000000000000        0x0 C:/devkitPro/libctru/lib\libcitro3d.a(mtx_orthotilt.o)
 .bss           0x0000000000000000        0x0 C:/devkitPro/libctru/lib\libcitro3d.a(mtx_orthotilt.o)
 .comment       0x0000000000000000       0x24 C:/devkitPro/libctru/lib\libcitro3d.a(mtx_orthotilt.o)
 .text          0x0000000000000000        0x0 C:/devkitPro/libctru/lib\libctru.a(vram.o)
 .data          0x0000000000000000        0x0 C:/devkitPro/libctru/lib\libctru.a(vram.o)
 .bss           0x0000000000000000        0x0 C:/devkitPro/libctru/lib\libctru.a(vram.o)
 .text.vramRealloc
                0x0000000000000000        0x8 C:/devkitPro/libctru/lib\libctru.a(vram.o)
 .text.vramGetSize
                0x0000000000000000       0x30 C:/devkitPro/libctru/lib\libctru.a(vram.o)
 .text.vramSpaceFree
                0x0000000000000000        0xc C:/devkitPro/libctru/lib\libctru.a(vram.o)
 .comment       0x0000000000000000       0x24 C:/devkitPro/libctru/lib\libctru.a(vram.o)
 .text          0x0000000000000000        0x0 C:/devkitPro/libctru/lib\libctru.a(linear.o)
 .data          0x0000000000000000        0x0 C:/devkitPro/libctru/lib\libctru.a(linear.o)
 .bss           0x0000000000000000        0x0 C:/devkitPro/libctru/lib\libctru.a(linear.o)
 .text.linearRealloc
                0x0000000000000000        0x8 C:/devkitPro/libctru/lib\libctru.a(linear.o)
 .text.linearGetSize
                0x0000000000000000       0x30 C:/devkitPro/libctru/lib\libctru.a(linear.o)
 .text.linearSpaceFree
                0x0000000000000000        0xc C:/devkitPro/libctru/lib\libctru.a(linear.o)
 .comment       0x0000000000000000       0x24 C:/devkitPro/libctru/lib\libctru.a(linear.o)
 .text          0x0000000000000000        0x0 C:/devkitPro/libctru/lib\libctru.a(mem_pool.o)
 .data          0x0000000000000000        0x0 C:/devkitPro/libctru/lib\libctru.a(mem_pool.o)
 .bss           0x0000000000000000        0x0 C:/devkitPro/libctru/lib\libctru.a(mem_pool.o)
 .text._ZN7MemPool12GetFreeSpaceEv
                0x0000000000000000       0x30 C:/devkitPro/libctru/lib\libctru.a(mem_pool.o)
 .comment       0x0000000000000000       0x24 C:/devkitPro/libctru/lib\libctru.a(mem_pool.o)
 .text          0x0000000000000000        0x0 C:/devkitPro/libctru/lib\libctru.a(os.o)
 .data          0x0000000000000000        0x0 C:/devkitPro/libctru/lib\libctru.a(os.o)
 .bss           0x0000000000000000        0x0 C:/devkitPro/libctru/lib\libctru.a(os.o)
 .text.osConvertOldLINEARMemToNew
                0x0000000000000000       0x20 C:/devkitPro/libctru/lib\libctru.a(os.o)
 .text.osTickCounterRead
                0x0000000000000000       0x38 C:/devkitPro/libctru/lib\libctru.a(os.o)
 .rodata.osStrError.str1.4
                0x0000000000000000        0x9 C:/devkitPro/libctru/lib\libctru.a(os.o)
 .text.osStrError
                0x0000000000000000       0x24 C:/devkitPro/libctru/lib\libctru.a(os.o)
 .text.osSetSpeedupEnable
                0x0000000000000000       0x38 C:/devkitPro/libctru/lib\libctru.a(os.o)
 .rodata.str1.4
                0x0000000000000000       0xc4 C:/devkitPro/libctru/lib\libctru.a(os.o)
 .rodata.CSWTCH.13
                0x0000000000000000       0x30 C:/devkitPro/libctru/lib\libctru.a(os.o)
 .comment       0x0000000000000000       0x24 C:/devkitPro/libctru/lib\libctru.a(os.o)
 .text          0x0000000000000000        0x0 C:/devkitPro/libctru/lib\libctru.a(gfx.o)
 .data          0x0000000000000000        0x0 C:/devkitPro/libctru/lib\libctru.a(gfx.o)
 .bss           0x0000000000000000        0x0 C:/devkitPro/libctru/lib\libctru.a(gfx.o)
 .text.gfxSet3D
                0x0000000000000000       0x10 C:/devkitPro/libctru/lib\libctru.a(gfx.o)
 .text.gfxIs3D  0x0000000000000000       0x1c C:/devkitPro/libctru/lib\libctru.a(gfx.o)
 .text.gfxSetWide
                0x0000000000000000       0x1c C:/devkitPro/libctru/lib\libctru.a(gfx.o)
 .text.gfxIsWide
                0x0000000000000000       0x1c C:/devkitPro/libctru/lib\libctru.a(gfx.o)
 .text.gfxGetScreenFormat
                0x0000000000000000       0x10 C:/devkitPro/libctru/lib\libctru.a(gfx.o)
 .text.gfxSetDoubleBuffering
                0x0000000000000000       0x10 C:/devkitPro/libctru/lib\libctru.a(gfx.o)
 .text.gfxFlushBuffers
                0x0000000000000000      0x10c C:/devkitPro/libctru/lib\libctru.a(gfx.o)
 .text.gfxConfigScreen
                0x0000000000000000       0x30 C:/devkitPro/libctru/lib\libctru.a(gfx.o)
 .text.gfxSwapBuffers
                0x0000000000000000       0x50 C:/devkitPro/libctru/lib\libctru.a(gfx.o)
 .text.gfxSwapBuffersGpu
                0x0000000000000000       0x50 C:/devkitPro/libctru/lib\libctru.a(gfx.o)
 .comment       0x0000000000000000       0x24 C:/devkitPro/libctru/lib\libctru.a(gfx.o)
 .text          0x0000000000000000        0x0 C:/devkitPro/libctru/lib\libctru.a(shaderProgram.o)
 .data          0x0000000000000000        0x0 C:/devkitPro/libctru/lib\libctru.a(shaderProgram.o)
 .bss           0x0000000000000000        0x0 C:/devkitPro/libctru/lib\libctru.a(shaderProgram.o)
 .text.shaderInstanceFree
                0x0000000000000000       0x34 C:/devkitPro/libctru/lib\libctru.a(shaderProgram.o)
 .text.shaderInstanceSetBool
                0x0000000000000000       0x54 C:/devkitPro/libctru/lib\libctru.a(shaderProgram.o)
 .text.shaderInstanceGetBool
                0x0000000000000000       0x48 C:/devkitPro/libctru/lib\libctru.a(shaderProgram.o)
 .text.shaderProgramSetGsh
                0x0000000000000000       0xa0 C:/devkitPro/libctru/lib\libctru.a(shaderProgram.o)
 .text.shaderProgramSetGshInputPermutation
                0x0000000000000000       0x28 C:/devkitPro/libctru/lib\libctru.a(shaderProgram.o)
 .text.shaderProgramUse
                0x0000000000000000      0x13c C:/devkitPro/libctru/lib\libctru.a(shaderProgram.o)
 .comment       0x0000000000000000       0x24 C:/devkitPro/libctru/lib\libctru.a(shaderProgram.o)
 .text          0x0000000000000000        0x0 C:/devkitPro/libctru/lib\libctru.a(shbin.o)
 .data          0x0000000000000000        0x0 C:/devkitPro/libctru/lib\libctru.a(shbin.o)
 .bss           0x0000000000000000        0x0 C:/devkitPro/libctru/lib\libctru.a(shbin.o)
 .text.DVLE_GenerateOutmap
                0x0000000000000000        0xc C:/devkitPro/libctru/lib\libctru.a(shbin.o)
 .comment       0x0000000000000000       0x24 C:/devkitPro/libctru/lib\libctru.a(shbin.o)
 .text          0x0000000000000000        0x0 C:/devkitPro/libctru/lib\libctru.a(gx.o)
 .data          0x0000000000000000        0x0 C:/devkitPro/libctru/lib\libctru.a(gx.o)
 .bss           0x0000000000000000        0x0 C:/devkitPro/libctru/lib\libctru.a(gx.o)
 .text.gxCmdQueueAdd
                0x0000000000000000        0x4 C:/devkitPro/libctru/lib\libctru.a(gx.o)
 .text.GX_RequestDma
                0x0000000000000000       0x6c C:/devkitPro/libctru/lib\libctru.a(gx.o)
 .text.GX_TextureCopy
                0x0000000000000000       0x74 C:/devkitPro/libctru/lib\libctru.a(gx.o)
 .text.GX_FlushCacheRegions
                0x0000000000000000       0x44 C:/devkitPro/libctru/lib\libctru.a(gx.o)
 .comment       0x0000000000000000       0x24 C:/devkitPro/libctru/lib\libctru.a(gx.o)
 .text          0x0000000000000000        0x0 C:/devkitPro/libctru/lib\libctru.a(gxqueue.o)
 .data          0x0000000000000000        0x0 C:/devkitPro/libctru/lib\libctru.a(gxqueue.o)
 .bss           0x0000000000000000        0x0 C:/devkitPro/libctru/lib\libctru.a(gxqueue.o)
 .comment       0x0000000000000000       0x24 C:/devkitPro/libctru/lib\libctru.a(gxqueue.o)
 .text          0x0000000000000000        0x0 C:/devkitPro/libctru/lib\libctru.a(gpu.o)
 .data          0x0000000000000000        0x0 C:/devkitPro/libctru/lib\libctru.a(gpu.o)
 .bss           0x0000000000000000        0x0 C:/devkitPro/libctru/lib\libctru.a(gpu.o)
 .text.GPUCMD_AddRawCommands
                0x0000000000000000       0x50 C:/devkitPro/libctru/lib\libctru.a(gpu.o)
 .text.f32tof20
                0x0000000000000000       0x40 C:/devkitPro/libctru/lib\libctru.a(gpu.o)
 .comment       0x0000000000000000       0x24 C:/devkitPro/libctru/lib\libctru.a(gpu.o)
 .text          0x0000000000000000        0x0 C:/devkitPro/libctru/lib\libctru.a(gspgpu.o)
 .data          0x0000000000000000        0x0 C:/devkitPro/libctru/lib\libctru.a(gspgpu.o)
 .bss           0x0000000000000000        0x0 C:/devkitPro/libctru/lib\libctru.a(gspgpu.o)
 .text.gxCmdQueueInterrupt
                0x0000000000000000        0x4 C:/devkitPro/libctru/lib\libctru.a(gspgpu.o)
 .text.GSPGPU_WriteHWRegs
                0x0000000000000000       0x68 C:/devkitPro/libctru/lib\libctru.a(gspgpu.o)
 .text.GSPGPU_WriteHWRegsWithMask
                0x0000000000000000       0x84 C:/devkitPro/libctru/lib\libctru.a(gspgpu.o)
 .text.GSPGPU_ReadHWRegs
                0x0000000000000000       0x68 C:/devkitPro/libctru/lib\libctru.a(gspgpu.o)
 .text.GSPGPU_SetBufferSwap
                0x0000000000000000       0x70 C:/devkitPro/libctru/lib\libctru.a(gspgpu.o)
 .text.GSPGPU_InvalidateDataCache
                0x0000000000000000       0x50 C:/devkitPro/libctru/lib\libctru.a(gspgpu.o)
 .text.GSPGPU_TriggerCmdReqQueue
                0x0000000000000000       0x2c C:/devkitPro/libctru/lib\libctru.a(gspgpu.o)
 .text.GSPGPU_RegisterInterruptRelayQueue
                0x0000000000000000       0x64 C:/devkitPro/libctru/lib\libctru.a(gspgpu.o)
 .text.GSPGPU_UnregisterInterruptRelayQueue
                0x0000000000000000       0x2c C:/devkitPro/libctru/lib\libctru.a(gspgpu.o)
 .text.GSPGPU_ResetGpuCore
                0x0000000000000000       0x2c C:/devkitPro/libctru/lib\libctru.a(gspgpu.o)
 .text.GSPGPU_SetLedForceOff
                0x0000000000000000       0x34 C:/devkitPro/libctru/lib\libctru.a(gspgpu.o)
 .comment       0x0000000000000000       0x24 C:/devkitPro/libctru/lib\libctru.a(gspgpu.o)
 .text          0x0000000000000000        0x0 C:/devkitPro/libctru/lib\libctru.a(apt.o)
 .data          0x0000000000000000        0x0 C:/devkitPro/libctru/lib\libctru.a(apt.o)
 .bss           0x0000000000000000        0x0 C:/devkitPro/libctru/lib\libctru.a(apt.o)
 .text.aptIsActive
                0x0000000000000000       0x14 C:/devkitPro/libctru/lib\libctru.a(apt.o)
 .text.aptShouldClose
                0x0000000000000000       0x1c C:/devkitPro/libctru/lib\libctru.a(apt.o)
 .text.aptIsSleepAllowed
                0x0000000000000000       0x18 C:/devkitPro/libctru/lib\libctru.a(apt.o)
 .text.aptIsHomeAllowed
                0x0000000000000000       0x18 C:/devkitPro/libctru/lib\libctru.a(apt.o)
 .text.aptSetHomeAllowed
                0x0000000000000000       0x20 C:/devkitPro/libctru/lib\libctru.a(apt.o)
 .text.aptShouldJumpToHome
                0x0000000000000000       0x38 C:/devkitPro/libctru/lib\libctru.a(apt.o)
 .text.aptCheckHomePressRejected
                0x0000000000000000       0x20 C:/devkitPro/libctru/lib\libctru.a(apt.o)
 .text.aptClearChainloader
                0x0000000000000000       0x18 C:/devkitPro/libctru/lib\libctru.a(apt.o)
 .text.aptSetChainloader
                0x0000000000000000       0x50 C:/devkitPro/libctru/lib\libctru.a(apt.o)
 .text.aptSetChainloaderToSelf
                0x0000000000000000       0x50 C:/devkitPro/libctru/lib\libctru.a(apt.o)
 .text.aptSetMessageCallback
                0x0000000000000000       0x1c C:/devkitPro/libctru/lib\libctru.a(apt.o)
 .text.APT_GetLockHandle
                0x0000000000000000       0x38 C:/devkitPro/libctru/lib\libctru.a(apt.o)
 .text.APT_Initialize
                0x0000000000000000       0x58 C:/devkitPro/libctru/lib\libctru.a(apt.o)
 .text.APT_Finalize
                0x0000000000000000       0x28 C:/devkitPro/libctru/lib\libctru.a(apt.o)
 .text.APT_HardwareResetAsync
                0x0000000000000000       0x20 C:/devkitPro/libctru/lib\libctru.a(apt.o)
 .text.APT_Enable
                0x0000000000000000       0x28 C:/devkitPro/libctru/lib\libctru.a(apt.o)
 .text.APT_GetAppletManInfo
                0x0000000000000000       0x70 C:/devkitPro/libctru/lib\libctru.a(apt.o)
 .text.APT_GetAppletInfo
                0x0000000000000000       0x98 C:/devkitPro/libctru/lib\libctru.a(apt.o)
 .text.APT_GetAppletProgramInfo
                0x0000000000000000       0x40 C:/devkitPro/libctru/lib\libctru.a(apt.o)
 .text.APT_GetProgramID
                0x0000000000000000       0x38 C:/devkitPro/libctru/lib\libctru.a(apt.o)
 .text.APT_IsRegistered
                0x0000000000000000       0x44 C:/devkitPro/libctru/lib\libctru.a(apt.o)
 .text.APT_InquireNotification
                0x0000000000000000       0x38 C:/devkitPro/libctru/lib\libctru.a(apt.o)
 .text.APT_PrepareToJumpToHomeMenu
                0x0000000000000000       0x20 C:/devkitPro/libctru/lib\libctru.a(apt.o)
 .text.APT_JumpToHomeMenu
                0x0000000000000000       0x48 C:/devkitPro/libctru/lib\libctru.a(apt.o)
 .text.APT_PrepareToJumpToApplication
                0x0000000000000000       0x28 C:/devkitPro/libctru/lib\libctru.a(apt.o)
 .text.APT_JumpToApplication
                0x0000000000000000       0x48 C:/devkitPro/libctru/lib\libctru.a(apt.o)
 .text.APT_SleepSystem
                0x0000000000000000       0x38 C:/devkitPro/libctru/lib\libctru.a(apt.o)
 .text.APT_NotifyToWait
                0x0000000000000000       0x28 C:/devkitPro/libctru/lib\libctru.a(apt.o)
 .text.APT_AppletUtility
                0x0000000000000000       0x70 C:/devkitPro/libctru/lib\libctru.a(apt.o)
 .text.APT_LockTransition
                0x0000000000000000       0xa0 C:/devkitPro/libctru/lib\libctru.a(apt.o)
 .text.APT_TryLockTransition
                0x0000000000000000       0x7c C:/devkitPro/libctru/lib\libctru.a(apt.o)
 .text.APT_GlanceParameter
                0x0000000000000000       0xb0 C:/devkitPro/libctru/lib\libctru.a(apt.o)
 .text.aptLaunchLibraryApplet
                0x0000000000000000      0x118 C:/devkitPro/libctru/lib\libctru.a(apt.o)
 .text.APT_SendParameter
                0x0000000000000000       0x5c C:/devkitPro/libctru/lib\libctru.a(apt.o)
 .text.APT_CancelParameter
                0x0000000000000000       0x74 C:/devkitPro/libctru/lib\libctru.a(apt.o)
 .text.APT_SendCaptureBufferInfo
                0x0000000000000000       0x40 C:/devkitPro/libctru/lib\libctru.a(apt.o)
 .text.APT_ReplySleepQuery
                0x0000000000000000       0x2c C:/devkitPro/libctru/lib\libctru.a(apt.o)
 .text.APT_ReplySleepNotificationComplete
                0x0000000000000000       0x28 C:/devkitPro/libctru/lib\libctru.a(apt.o)
 .text.APT_PrepareToCloseApplication
                0x0000000000000000       0x28 C:/devkitPro/libctru/lib\libctru.a(apt.o)
 .text.APT_CloseApplication
                0x0000000000000000       0x48 C:/devkitPro/libctru/lib\libctru.a(apt.o)
 .text.APT_SetAppCpuTimeLimit
                0x0000000000000000       0x34 C:/devkitPro/libctru/lib\libctru.a(apt.o)
 .text.APT_GetAppCpuTimeLimit
                0x0000000000000000       0x38 C:/devkitPro/libctru/lib\libctru.a(apt.o)
 .text.APT_PrepareToDoApplicationJump
                0x0000000000000000       0x34 C:/devkitPro/libctru/lib\libctru.a(apt.o)
 .text.APT_DoApplicationJump
                0x0000000000000000       0x68 C:/devkitPro/libctru/lib\libctru.a(apt.o)
 .text.APT_PrepareToStartLibraryApplet
                0x0000000000000000       0x28 C:/devkitPro/libctru/lib\libctru.a(apt.o)
 .text.APT_StartLibraryApplet
                0x0000000000000000       0x4c C:/devkitPro/libctru/lib\libctru.a(apt.o)
 .text.APT_PrepareToStartSystemApplet
                0x0000000000000000       0x28 C:/devkitPro/libctru/lib\libctru.a(apt.o)
 .text.APT_StartSystemApplet
                0x0000000000000000       0x4c C:/devkitPro/libctru/lib\libctru.a(apt.o)
 .text.APT_GetSharedFont
                0x0000000000000000       0x48 C:/devkitPro/libctru/lib\libctru.a(apt.o)
 .text.APT_ReceiveDeliverArg
                0x0000000000000000       0xbc C:/devkitPro/libctru/lib\libctru.a(apt.o)
 .comment       0x0000000000000000       0x24 C:/devkitPro/libctru/lib\libctru.a(apt.o)
 .text          0x0000000000000000        0x0 C:/devkitPro/libctru/lib\libctru.a(hid.o)
 .data          0x0000000000000000        0x0 C:/devkitPro/libctru/lib\libctru.a(hid.o)
 .bss           0x0000000000000000        0x0 C:/devkitPro/libctru/lib\libctru.a(hid.o)
 .text.hidSetRepeatParameters
                0x0000000000000000       0x3c C:/devkitPro/libctru/lib\libctru.a(hid.o)
 .text.hidWaitForEvent
                0x0000000000000000       0x54 C:/devkitPro/libctru/lib\libctru.a(hid.o)
 .text.hidWaitForAnyEvent
                0x0000000000000000      0x120 C:/devkitPro/libctru/lib\libctru.a(hid.o)
 .text.hidCheckSectionUpdateTime
                0x0000000000000000       0x3c C:/devkitPro/libctru/lib\libctru.a(hid.o)
 .text.hidKeysHeld
                0x0000000000000000       0x10 C:/devkitPro/libctru/lib\libctru.a(hid.o)
 .text.hidKeysDownRepeat
                0x0000000000000000       0x18 C:/devkitPro/libctru/lib\libctru.a(hid.o)
 .text.hidKeysUp
                0x0000000000000000       0x10 C:/devkitPro/libctru/lib\libctru.a(hid.o)
 .text.hidTouchRead
                0x0000000000000000       0x18 C:/devkitPro/libctru/lib\libctru.a(hid.o)
 .text.hidCircleRead
                0x0000000000000000       0x18 C:/devkitPro/libctru/lib\libctru.a(hid.o)
 .text.hidAccelRead
                0x0000000000000000       0x20 C:/devkitPro/libctru/lib\libctru.a(hid.o)
 .text.hidGyroRead
                0x0000000000000000       0x20 C:/devkitPro/libctru/lib\libctru.a(hid.o)
 .text.HIDUSER_GetHandles
                0x0000000000000000       0x90 C:/devkitPro/libctru/lib\libctru.a(hid.o)
 .text.HIDUSER_EnableAccelerometer
                0x0000000000000000       0x2c C:/devkitPro/libctru/lib\libctru.a(hid.o)
 .text.HIDUSER_DisableAccelerometer
                0x0000000000000000       0x2c C:/devkitPro/libctru/lib\libctru.a(hid.o)
 .text.HIDUSER_EnableGyroscope
                0x0000000000000000       0x2c C:/devkitPro/libctru/lib\libctru.a(hid.o)
 .text.HIDUSER_DisableGyroscope
                0x0000000000000000       0x2c C:/devkitPro/libctru/lib\libctru.a(hid.o)
 .text.HIDUSER_GetGyroscopeRawToDpsCoefficient
                0x0000000000000000       0x38 C:/devkitPro/libctru/lib\libctru.a(hid.o)
 .text.HIDUSER_GetSoundVolume
                0x0000000000000000       0x38 C:/devkitPro/libctru/lib\libctru.a(hid.o)
 .comment       0x0000000000000000       0x24 C:/devkitPro/libctru/lib\libctru.a(hid.o)
 .text          0x0000000000000000        0x0 C:/devkitPro/libctru/lib\libctru.a(ptmsysm.o)
 .data          0x0000000000000000        0x0 C:/devkitPro/libctru/lib\libctru.a(ptmsysm.o)
 .bss           0x0000000000000000        0x0 C:/devkitPro/libctru/lib\libctru.a(ptmsysm.o)
 .text.PTMSYSM_RequestSleep
                0x0000000000000000       0x30 C:/devkitPro/libctru/lib\libctru.a(ptmsysm.o)
 .text.PTMSYSM_ReplyToSleepQuery
                0x0000000000000000       0x3c C:/devkitPro/libctru/lib\libctru.a(ptmsysm.o)
 .text.PTMSYSM_NotifySleepPreparationComplete
                0x0000000000000000       0x3c C:/devkitPro/libctru/lib\libctru.a(ptmsysm.o)
 .text.PTMSYSM_SetWakeEvents
                0x0000000000000000       0x5c C:/devkitPro/libctru/lib\libctru.a(ptmsysm.o)
 .text.PTMSYSM_GetWakeReason
                0x0000000000000000       0x58 C:/devkitPro/libctru/lib\libctru.a(ptmsysm.o)
 .text.PTMSYSM_Awaken
                0x0000000000000000       0x30 C:/devkitPro/libctru/lib\libctru.a(ptmsysm.o)
 .text.PTMSYSM_CheckNew3DS
                0x0000000000000000       0x34 C:/devkitPro/libctru/lib\libctru.a(ptmsysm.o)
 .text.PTMSYSM_ShutdownAsync
                0x0000000000000000       0x44 C:/devkitPro/libctru/lib\libctru.a(ptmsysm.o)
 .text.PTMSYSM_RebootAsync
                0x0000000000000000       0x38 C:/devkitPro/libctru/lib\libctru.a(ptmsysm.o)
 .text.PTMSYSM_InvalidateSystemTime
                0x0000000000000000       0x30 C:/devkitPro/libctru/lib\libctru.a(ptmsysm.o)
 .text.PTMSYSM_GetRtcTime
                0x0000000000000000       0x44 C:/devkitPro/libctru/lib\libctru.a(ptmsysm.o)
 .text.PTMSYSM_SetRtcTime
                0x0000000000000000       0x4c C:/devkitPro/libctru/lib\libctru.a(ptmsysm.o)
 .comment       0x0000000000000000       0x24 C:/devkitPro/libctru/lib\libctru.a(ptmsysm.o)
 .text          0x0000000000000000        0x0 C:/devkitPro/libctru/lib\libctru.a(rbtree_init.o)
 .data          0x0000000000000000        0x0 C:/devkitPro/libctru/lib\libctru.a(rbtree_init.o)
 .bss           0x0000000000000000        0x0 C:/devkitPro/libctru/lib\libctru.a(rbtree_init.o)
 .comment       0x0000000000000000       0x24 C:/devkitPro/libctru/lib\libctru.a(rbtree_init.o)
 .text          0x0000000000000000        0x0 C:/devkitPro/libctru/lib\libctru.a(rbtree_insert.o)
 .data          0x0000000000000000        0x0 C:/devkitPro/libctru/lib\libctru.a(rbtree_insert.o)
 .bss           0x0000000000000000        0x0 C:/devkitPro/libctru/lib\libctru.a(rbtree_insert.o)
 .text.rbtree_insert_multi
                0x0000000000000000        0x8 C:/devkitPro/libctru/lib\libctru.a(rbtree_insert.o)
 .comment       0x0000000000000000       0x24 C:/devkitPro/libctru/lib\libctru.a(rbtree_insert.o)
 .text          0x0000000000000000        0x0 C:/devkitPro/libctru/lib\libctru.a(rbtree_rotate.o)
 .data          0x0000000000000000        0x0 C:/devkitPro/libctru/lib\libctru.a(rbtree_rotate.o)
 .bss           0x0000000000000000        0x0 C:/devkitPro/libctru/lib\libctru.a(rbtree_rotate.o)
 .comment       0x0000000000000000       0x24 C:/devkitPro/libctru/lib\libctru.a(rbtree_rotate.o)
 .text          0x0000000000000000        0x0 C:/devkitPro/libctru/lib\libctru.a(rbtree_remove.o)
 .data          0x0000000000000000        0x0 C:/devkitPro/libctru/lib\libctru.a(rbtree_remove.o)
 .bss           0x0000000000000000        0x0 C:/devkitPro/libctru/lib\libctru.a(rbtree_remove.o)
 .comment       0x0000000000000000       0x24 C:/devkitPro/libctru/lib\libctru.a(rbtree_remove.o)
 .text          0x0000000000000000        0x0 C:/devkitPro/libctru/lib\libctru.a(rbtree_find.o)
 .data          0x0000000000000000        0x0 C:/devkitPro/libctru/lib\libctru.a(rbtree_find.o)
 .bss           0x0000000000000000        0x0 C:/devkitPro/libctru/lib\libctru.a(rbtree_find.o)
 .comment       0x0000000000000000       0x24 C:/devkitPro/libctru/lib\libctru.a(rbtree_find.o)
 .text          0x0000000000000000        0x0 C:/devkitPro/libctru/lib\libctru.a(allocateHeaps.o)
 .data          0x0000000000000000        0x0 C:/devkitPro/libctru/lib\libctru.a(allocateHeaps.o)
 .bss           0x0000000000000000        0x0 C:/devkitPro/libctru/lib\libctru.a(allocateHeaps.o)
 .comment       0x0000000000000000       0x24 C:/devkitPro/libctru/lib\libctru.a(allocateHeaps.o)
 .text          0x0000000000000000        0x0 C:/devkitPro/libctru/lib\libctru.a(ctru_init.o)
 .data          0x0000000000000000        0x0 C:/devkitPro/libctru/lib\libctru.a(ctru_init.o)
 .bss           0x0000000000000000        0x0 C:/devkitPro/libctru/lib\libctru.a(ctru_init.o)
 .comment       0x0000000000000000       0x24 C:/devkitPro/libctru/lib\libctru.a(ctru_init.o)
 .text          0x0000000000000000        0x0 C:/devkitPro/libctru/lib\libctru.a(initArgv.o)
 .data          0x0000000000000000        0x0 C:/devkitPro/libctru/lib\libctru.a(initArgv.o)
 .bss           0x0000000000000000        0x0 C:/devkitPro/libctru/lib\libctru.a(initArgv.o)
 .comment       0x0000000000000000       0x24 C:/devkitPro/libctru/lib\libctru.a(initArgv.o)
 .text          0x0000000000000000        0x0 C:/devkitPro/libctru/lib\libctru.a(svc.o)
 .data          0x0000000000000000        0x0 C:/devkitPro/libctru/lib\libctru.a(svc.o)
 .bss           0x0000000000000000        0x0 C:/devkitPro/libctru/lib\libctru.a(svc.o)
 .text.svcGetProcessAffinityMask
                0x0000000000000000        0x8 C:/devkitPro/libctru/lib\libctru.a(svc.o)
 .text.svcSetProcessAffinityMask
                0x0000000000000000        0x8 C:/devkitPro/libctru/lib\libctru.a(svc.o)
 .text.svcGetProcessIdealProcessor
                0x0000000000000000       0x14 C:/devkitPro/libctru/lib\libctru.a(svc.o)
 .text.svcSetProcessIdealProcessor
                0x0000000000000000        0x8 C:/devkitPro/libctru/lib\libctru.a(svc.o)
 .text.svcGetThreadPriority
                0x0000000000000000       0x14 C:/devkitPro/libctru/lib\libctru.a(svc.o)
 .text.svcSetThreadPriority
                0x0000000000000000        0x8 C:/devkitPro/libctru/lib\libctru.a(svc.o)
 .text.svcGetThreadAffinityMask
                0x0000000000000000        0x8 C:/devkitPro/libctru/lib\libctru.a(svc.o)
 .text.svcSetThreadAffinityMask
                0x0000000000000000        0x8 C:/devkitPro/libctru/lib\libctru.a(svc.o)
 .text.svcGetThreadIdealProcessor
                0x0000000000000000       0x14 C:/devkitPro/libctru/lib\libctru.a(svc.o)
 .text.svcSetThreadIdealProcessor
                0x0000000000000000        0x8 C:/devkitPro/libctru/lib\libctru.a(svc.o)
 .text.svcGetProcessorID
                0x0000000000000000        0x8 C:/devkitPro/libctru/lib\libctru.a(svc.o)
 .text.svcRun   0x0000000000000000       0x24 C:/devkitPro/libctru/lib\libctru.a(svc.o)
 .text.svcCreateMutex
                0x0000000000000000       0x14 C:/devkitPro/libctru/lib\libctru.a(svc.o)
 .text.svcCreateSemaphore
                0x0000000000000000       0x14 C:/devkitPro/libctru/lib\libctru.a(svc.o)
 .text.svcReleaseSemaphore
                0x0000000000000000       0x14 C:/devkitPro/libctru/lib\libctru.a(svc.o)
 .text.svcCreateTimer
                0x0000000000000000       0x14 C:/devkitPro/libctru/lib\libctru.a(svc.o)
 .text.svcSetTimer
                0x0000000000000000       0x18 C:/devkitPro/libctru/lib\libctru.a(svc.o)
 .text.svcCancelTimer
                0x0000000000000000        0x8 C:/devkitPro/libctru/lib\libctru.a(svc.o)
 .text.svcClearTimer
                0x0000000000000000        0x8 C:/devkitPro/libctru/lib\libctru.a(svc.o)
 .text.svcCreateMemoryBlock
                0x0000000000000000       0x18 C:/devkitPro/libctru/lib\libctru.a(svc.o)
 .text.svcArbitrateAddress
                0x0000000000000000       0x18 C:/devkitPro/libctru/lib\libctru.a(svc.o)
 .text.svcGetHandleInfo
                0x0000000000000000       0x18 C:/devkitPro/libctru/lib\libctru.a(svc.o)
 .text.svcGetSystemInfo
                0x0000000000000000       0x18 C:/devkitPro/libctru/lib\libctru.a(svc.o)
 .text.svcGetProcessInfo
                0x0000000000000000       0x18 C:/devkitPro/libctru/lib\libctru.a(svc.o)
 .text.svcGetThreadInfo
                0x0000000000000000       0x18 C:/devkitPro/libctru/lib\libctru.a(svc.o)
 .text.svcOpenProcess
                0x0000000000000000       0x14 C:/devkitPro/libctru/lib\libctru.a(svc.o)
 .text.svcOpenThread
                0x0000000000000000       0x14 C:/devkitPro/libctru/lib\libctru.a(svc.o)
 .text.svcGetProcessId
                0x0000000000000000       0x14 C:/devkitPro/libctru/lib\libctru.a(svc.o)
 .text.svcGetProcessIdOfThread
                0x0000000000000000       0x14 C:/devkitPro/libctru/lib\libctru.a(svc.o)
 .text.svcGetThreadId
                0x0000000000000000       0x14 C:/devkitPro/libctru/lib\libctru.a(svc.o)
 .text.svcOutputDebugString
                0x0000000000000000        0x8 C:/devkitPro/libctru/lib\libctru.a(svc.o)
 .text.svcControlPerformanceCounter
                0x0000000000000000       0x1c C:/devkitPro/libctru/lib\libctru.a(svc.o)
 .text.svcCreatePort
                0x0000000000000000       0x20 C:/devkitPro/libctru/lib\libctru.a(svc.o)
 .text.svcCreateSessionToPort
                0x0000000000000000       0x14 C:/devkitPro/libctru/lib\libctru.a(svc.o)
 .text.svcCreateSession
                0x0000000000000000       0x20 C:/devkitPro/libctru/lib\libctru.a(svc.o)
 .text.svcAcceptSession
                0x0000000000000000       0x18 C:/devkitPro/libctru/lib\libctru.a(svc.o)
 .text.svcReplyAndReceive
                0x0000000000000000       0x18 C:/devkitPro/libctru/lib\libctru.a(svc.o)
 .text.svcBindInterrupt
                0x0000000000000000        0x8 C:/devkitPro/libctru/lib\libctru.a(svc.o)
 .text.svcUnbindInterrupt
                0x0000000000000000        0x8 C:/devkitPro/libctru/lib\libctru.a(svc.o)
 .text.svcInvalidateProcessDataCache
                0x0000000000000000        0x8 C:/devkitPro/libctru/lib\libctru.a(svc.o)
 .text.svcStoreProcessDataCache
                0x0000000000000000        0x8 C:/devkitPro/libctru/lib\libctru.a(svc.o)
 .text.svcFlushProcessDataCache
                0x0000000000000000        0x8 C:/devkitPro/libctru/lib\libctru.a(svc.o)
 .text.svcStartInterProcessDma
                0x0000000000000000       0x20 C:/devkitPro/libctru/lib\libctru.a(svc.o)
 .text.svcStopDma
                0x0000000000000000        0x8 C:/devkitPro/libctru/lib\libctru.a(svc.o)
 .text.svcGetDmaState
                0x0000000000000000       0x14 C:/devkitPro/libctru/lib\libctru.a(svc.o)
 .text.svcRestartDma
                0x0000000000000000       0x14 C:/devkitPro/libctru/lib\libctru.a(svc.o)
 .text.svcSetGpuProt
                0x0000000000000000        0x8 C:/devkitPro/libctru/lib\libctru.a(svc.o)
 .text.svcSetWifiEnabled
                0x0000000000000000        0x8 C:/devkitPro/libctru/lib\libctru.a(svc.o)
 .text.svcDebugActiveProcess
                0x0000000000000000       0x14 C:/devkitPro/libctru/lib\libctru.a(svc.o)
 .text.svcBreakDebugProcess
                0x0000000000000000        0x8 C:/devkitPro/libctru/lib\libctru.a(svc.o)
 .text.svcTerminateDebugProcess
                0x0000000000000000        0x8 C:/devkitPro/libctru/lib\libctru.a(svc.o)
 .text.svcGetProcessDebugEvent
                0x0000000000000000        0x8 C:/devkitPro/libctru/lib\libctru.a(svc.o)
 .text.svcContinueDebugEvent
                0x0000000000000000        0x8 C:/devkitPro/libctru/lib\libctru.a(svc.o)
 .text.svcGetProcessList
                0x0000000000000000       0x14 C:/devkitPro/libctru/lib\libctru.a(svc.o)
 .text.svcGetThreadList
                0x0000000000000000       0x14 C:/devkitPro/libctru/lib\libctru.a(svc.o)
 .text.svcGetDebugThreadContext
                0x0000000000000000        0x8 C:/devkitPro/libctru/lib\libctru.a(svc.o)
 .text.svcSetDebugThreadContext
                0x0000000000000000        0x8 C:/devkitPro/libctru/lib\libctru.a(svc.o)
 .text.svcQueryDebugProcessMemory
                0x0000000000000000       0x24 C:/devkitPro/libctru/lib\libctru.a(svc.o)
 .text.svcReadProcessMemory
                0x0000000000000000        0x8 C:/devkitPro/libctru/lib\libctru.a(svc.o)
 .text.svcWriteProcessMemory
                0x0000000000000000        0x8 C:/devkitPro/libctru/lib\libctru.a(svc.o)
 .text.svcSetHardwareBreakPoint
                0x0000000000000000        0x8 C:/devkitPro/libctru/lib\libctru.a(svc.o)
 .text.svcGetDebugThreadParam
                0x0000000000000000       0x20 C:/devkitPro/libctru/lib\libctru.a(svc.o)
 .text.svcControlProcessMemory
                0x0000000000000000       0x18 C:/devkitPro/libctru/lib\libctru.a(svc.o)
 .text.svcMapProcessMemory
                0x0000000000000000        0x8 C:/devkitPro/libctru/lib\libctru.a(svc.o)
 .text.svcUnmapProcessMemory
                0x0000000000000000        0x8 C:/devkitPro/libctru/lib\libctru.a(svc.o)
 .text.svcCreateCodeSet
                0x0000000000000000       0x1c C:/devkitPro/libctru/lib\libctru.a(svc.o)
 .text.svcCreateProcess
                0x0000000000000000       0x18 C:/devkitPro/libctru/lib\libctru.a(svc.o)
 .text.svcTerminateProcess
                0x0000000000000000        0x8 C:/devkitPro/libctru/lib\libctru.a(svc.o)
 .text.svcSetProcessResourceLimits
                0x0000000000000000        0x8 C:/devkitPro/libctru/lib\libctru.a(svc.o)
 .text.svcCreateResourceLimit
                0x0000000000000000       0x14 C:/devkitPro/libctru/lib\libctru.a(svc.o)
 .text.svcSetResourceLimitValues
                0x0000000000000000        0x8 C:/devkitPro/libctru/lib\libctru.a(svc.o)
 .text.svcBackdoor
                0x0000000000000000        0x8 C:/devkitPro/libctru/lib\libctru.a(svc.o)
 .text.svcKernelSetState
                0x0000000000000000        0x8 C:/devkitPro/libctru/lib\libctru.a(svc.o)
 .text.svcQueryProcessMemory
                0x0000000000000000       0x24 C:/devkitPro/libctru/lib\libctru.a(svc.o)
 .text          0x0000000000000000        0x0 C:/devkitPro/libctru/lib\libctru.a(stack_adjust.o)
 .data          0x0000000000000000        0x0 C:/devkitPro/libctru/lib\libctru.a(stack_adjust.o)
 .bss           0x0000000000000000        0x0 C:/devkitPro/libctru/lib\libctru.a(stack_adjust.o)
 .text          0x0000000000000000        0x0 C:/devkitPro/libctru/lib\libctru.a(synchronization.o)
 .data          0x0000000000000000        0x0 C:/devkitPro/libctru/lib\libctru.a(synchronization.o)
 .bss           0x0000000000000000        0x0 C:/devkitPro/libctru/lib\libctru.a(synchronization.o)
 .text.syncArbitrateAddressWithTimeout
                0x0000000000000000       0x2c C:/devkitPro/libctru/lib\libctru.a(synchronization.o)
 .text.CondVar_Init
                0x0000000000000000        0xc C:/devkitPro/libctru/lib\libctru.a(synchronization.o)
 .text.CondVar_Wait
                0x0000000000000000       0x84 C:/devkitPro/libctru/lib\libctru.a(synchronization.o)
 .text.CondVar_WaitTimeout
                0x0000000000000000       0xec C:/devkitPro/libctru/lib\libctru.a(synchronization.o)
 .text.CondVar_WakeUp
                0x0000000000000000       0x88 C:/devkitPro/libctru/lib\libctru.a(synchronization.o)
 .text.LightEvent_Pulse
                0x0000000000000000       0x48 C:/devkitPro/libctru/lib\libctru.a(synchronization.o)
 .text.LightEvent_WaitTimeout
                0x0000000000000000       0xfc C:/devkitPro/libctru/lib\libctru.a(synchronization.o)
 .text.LightSemaphore_Init
                0x0000000000000000       0x14 C:/devkitPro/libctru/lib\libctru.a(synchronization.o)
 .text.LightSemaphore_Acquire
                0x0000000000000000       0x94 C:/devkitPro/libctru/lib\libctru.a(synchronization.o)
 .text.LightSemaphore_TryAcquire
                0x0000000000000000       0x38 C:/devkitPro/libctru/lib\libctru.a(synchronization.o)
 .text.LightSemaphore_Release
                0x0000000000000000       0x64 C:/devkitPro/libctru/lib\libctru.a(synchronization.o)
 .comment       0x0000000000000000       0x24 C:/devkitPro/libctru/lib\libctru.a(synchronization.o)
 .text          0x0000000000000000        0x0 C:/devkitPro/libctru/lib\libctru.a(srv.o)
 .data          0x0000000000000000        0x0 C:/devkitPro/libctru/lib\libctru.a(srv.o)
 .bss           0x0000000000000000        0x0 C:/devkitPro/libctru/lib\libctru.a(srv.o)
 .text.srvSetBlockingPolicy
                0x0000000000000000        0xc C:/devkitPro/libctru/lib\libctru.a(srv.o)
 .text.srvGetSessionHandle
                0x0000000000000000        0xc C:/devkitPro/libctru/lib\libctru.a(srv.o)
 .text.srvRegisterClient
                0x0000000000000000       0x34 C:/devkitPro/libctru/lib\libctru.a(srv.o)
 .text.srvEnableNotification
                0x0000000000000000       0x40 C:/devkitPro/libctru/lib\libctru.a(srv.o)
 .text.srvRegisterService
                0x0000000000000000       0x70 C:/devkitPro/libctru/lib\libctru.a(srv.o)
 .text.srvUnregisterService
                0x0000000000000000       0x58 C:/devkitPro/libctru/lib\libctru.a(srv.o)
 .text.srvRegisterPort
                0x0000000000000000       0x64 C:/devkitPro/libctru/lib\libctru.a(srv.o)
 .text.srvUnregisterPort
                0x0000000000000000       0x58 C:/devkitPro/libctru/lib\libctru.a(srv.o)
 .text.srvGetPort
                0x0000000000000000       0x6c C:/devkitPro/libctru/lib\libctru.a(srv.o)
 .text.srvWaitForPortRegistered
                0x0000000000000000       0x5c C:/devkitPro/libctru/lib\libctru.a(srv.o)
 .text.srvSubscribe
                0x0000000000000000       0x34 C:/devkitPro/libctru/lib\libctru.a(srv.o)
 .text.srvUnsubscribe
                0x0000000000000000       0x34 C:/devkitPro/libctru/lib\libctru.a(srv.o)
 .text.srvReceiveNotification
                0x0000000000000000       0x40 C:/devkitPro/libctru/lib\libctru.a(srv.o)
 .text.srvPublishAndGetSubscriber
                0x0000000000000000       0x68 C:/devkitPro/libctru/lib\libctru.a(srv.o)
 .text.srvIsServiceRegistered
                0x0000000000000000       0x74 C:/devkitPro/libctru/lib\libctru.a(srv.o)
 .text.srvIsPortRegistered
                0x0000000000000000       0x74 C:/devkitPro/libctru/lib\libctru.a(srv.o)
 .comment       0x0000000000000000       0x24 C:/devkitPro/libctru/lib\libctru.a(srv.o)
 .text          0x0000000000000000        0x0 C:/devkitPro/libctru/lib\libctru.a(thread.o)
 .data          0x0000000000000000        0x0 C:/devkitPro/libctru/lib\libctru.a(thread.o)
 .bss           0x0000000000000000        0x0 C:/devkitPro/libctru/lib\libctru.a(thread.o)
 .text.threadGetHandle
                0x0000000000000000       0x24 C:/devkitPro/libctru/lib\libctru.a(thread.o)
 .text.threadGetExitCode
                0x0000000000000000       0x1c C:/devkitPro/libctru/lib\libctru.a(thread.o)
 .text.threadDetach
                0x0000000000000000       0x44 C:/devkitPro/libctru/lib\libctru.a(thread.o)
 .comment       0x0000000000000000       0x24 C:/devkitPro/libctru/lib\libctru.a(thread.o)
 .text          0x0000000000000000        0x0 C:/devkitPro/libctru/lib\libctru.a(mappable.o)
 .data          0x0000000000000000        0x0 C:/devkitPro/libctru/lib\libctru.a(mappable.o)
 .bss           0x0000000000000000        0x0 C:/devkitPro/libctru/lib\libctru.a(mappable.o)
 .comment       0x0000000000000000       0x24 C:/devkitPro/libctru/lib\libctru.a(mappable.o)
 .text          0x0000000000000000        0x0 C:/devkitPro/libctru/lib\libctru.a(irrst.o)
 .data          0x0000000000000000        0x0 C:/devkitPro/libctru/lib\libctru.a(irrst.o)
 .bss           0x0000000000000000        0x0 C:/devkitPro/libctru/lib\libctru.a(irrst.o)
 .text.irrstWaitForEvent
                0x0000000000000000       0x50 C:/devkitPro/libctru/lib\libctru.a(irrst.o)
 .text.irrstCheckSectionUpdateTime
                0x0000000000000000       0x3c C:/devkitPro/libctru/lib\libctru.a(irrst.o)
 .text.irrstCstickRead
                0x0000000000000000       0x18 C:/devkitPro/libctru/lib\libctru.a(irrst.o)
 .text.IRRST_GetHandles
                0x0000000000000000       0x50 C:/devkitPro/libctru/lib\libctru.a(irrst.o)
 .text.IRRST_Initialize
                0x0000000000000000       0x38 C:/devkitPro/libctru/lib\libctru.a(irrst.o)
 .text.IRRST_Shutdown
                0x0000000000000000       0x2c C:/devkitPro/libctru/lib\libctru.a(irrst.o)
 .comment       0x0000000000000000       0x24 C:/devkitPro/libctru/lib\libctru.a(irrst.o)
 .text          0x0000000000000000        0x0 C:/devkitPro/libctru/lib\libctru.a(srvpm.o)
 .data          0x0000000000000000        0x0 C:/devkitPro/libctru/lib\libctru.a(srvpm.o)
 .bss           0x0000000000000000        0x0 C:/devkitPro/libctru/lib\libctru.a(srvpm.o)
 .text.srvPmExit
                0x0000000000000000       0x70 C:/devkitPro/libctru/lib\libctru.a(srvpm.o)
 .rodata.srvPmInit.str1.4
                0x0000000000000000        0x7 C:/devkitPro/libctru/lib\libctru.a(srvpm.o)
 .text.srvPmInit
                0x0000000000000000       0xbc C:/devkitPro/libctru/lib\libctru.a(srvpm.o)
 .text.SRVPM_PublishToProcess
                0x0000000000000000       0x60 C:/devkitPro/libctru/lib\libctru.a(srvpm.o)
 .text.SRVPM_PublishToAll
                0x0000000000000000       0x58 C:/devkitPro/libctru/lib\libctru.a(srvpm.o)
 .text.SRVPM_RegisterProcess
                0x0000000000000000       0x6c C:/devkitPro/libctru/lib\libctru.a(srvpm.o)
 .text.SRVPM_UnregisterProcess
                0x0000000000000000       0x58 C:/devkitPro/libctru/lib\libctru.a(srvpm.o)
 .bss.srvPmRefCount
                0x0000000000000000        0x4 C:/devkitPro/libctru/lib\libctru.a(srvpm.o)
 .comment       0x0000000000000000       0x24 C:/devkitPro/libctru/lib\libctru.a(srvpm.o)
 .text          0x0000000000000000        0x0 C:/devkitPro/libctru/lib\libctru.a(rbtree_iterator.o)
 .data          0x0000000000000000        0x0 C:/devkitPro/libctru/lib\libctru.a(rbtree_iterator.o)
 .bss           0x0000000000000000        0x0 C:/devkitPro/libctru/lib\libctru.a(rbtree_iterator.o)
 .text.rbtree_node_prev
                0x0000000000000000       0x50 C:/devkitPro/libctru/lib\libctru.a(rbtree_iterator.o)
 .comment       0x0000000000000000       0x24 C:/devkitPro/libctru/lib\libctru.a(rbtree_iterator.o)
 .text          0x0000000000000000        0x0 C:/devkitPro/libctru/lib\libctru.a(appInit.o)
 .data          0x0000000000000000        0x0 C:/devkitPro/libctru/lib\libctru.a(appInit.o)
 .bss           0x0000000000000000        0x0 C:/devkitPro/libctru/lib\libctru.a(appInit.o)
 .comment       0x0000000000000000       0x24 C:/devkitPro/libctru/lib\libctru.a(appInit.o)
 .text          0x0000000000000000        0x0 C:/devkitPro/libctru/lib\libctru.a(syscalls.o)
 .data          0x0000000000000000        0x0 C:/devkitPro/libctru/lib\libctru.a(syscalls.o)
 .bss           0x0000000000000000        0x0 C:/devkitPro/libctru/lib\libctru.a(syscalls.o)
 .comment       0x0000000000000000       0x24 C:/devkitPro/libctru/lib\libctru.a(syscalls.o)
 .text          0x0000000000000000        0x0 C:/devkitPro/libctru/lib\libctru.a(appExit.o)
 .data          0x0000000000000000        0x0 C:/devkitPro/libctru/lib\libctru.a(appExit.o)
 .bss           0x0000000000000000        0x0 C:/devkitPro/libctru/lib\libctru.a(appExit.o)
 .comment       0x0000000000000000       0x24 C:/devkitPro/libctru/lib\libctru.a(appExit.o)
 .text          0x0000000000000000        0x0 C:/devkitPro/libctru/lib\libctru.a(ctru_exit.o)
 .data          0x0000000000000000        0x0 C:/devkitPro/libctru/lib\libctru.a(ctru_exit.o)
 .bss           0x0000000000000000        0x0 C:/devkitPro/libctru/lib\libctru.a(ctru_exit.o)
 .comment       0x0000000000000000       0x24 C:/devkitPro/libctru/lib\libctru.a(ctru_exit.o)
 .text          0x0000000000000000        0x0 C:/devkitPro/libctru/lib\libctru.a(env.o)
 .data          0x0000000000000000        0x0 C:/devkitPro/libctru/lib\libctru.a(env.o)
 .bss           0x0000000000000000        0x0 C:/devkitPro/libctru/lib\libctru.a(env.o)
 .comment       0x0000000000000000       0x24 C:/devkitPro/libctru/lib\libctru.a(env.o)
 .text          0x0000000000000000        0x0 C:/devkitPro/libctru/lib\libctru.a(archive_dev.o)
 .data          0x0000000000000000        0x0 C:/devkitPro/libctru/lib\libctru.a(archive_dev.o)
 .bss           0x0000000000000000        0x0 C:/devkitPro/libctru/lib\libctru.a(archive_dev.o)
 .text.archiveMount
                0x0000000000000000       0xa0 C:/devkitPro/libctru/lib\libctru.a(archive_dev.o)
 .text.archiveCommitSaveData
                0x0000000000000000       0x5c C:/devkitPro/libctru/lib\libctru.a(archive_dev.o)
 .text._archiveUnmountDeviceStruct
                0x0000000000000000       0x24 C:/devkitPro/libctru/lib\libctru.a(archive_dev.o)
 .text.archiveUnmount
                0x0000000000000000       0x54 C:/devkitPro/libctru/lib\libctru.a(archive_dev.o)
 .text.archive_getmtime
                0x0000000000000000       0xc4 C:/devkitPro/libctru/lib\libctru.a(archive_dev.o)
 .comment       0x0000000000000000       0x24 C:/devkitPro/libctru/lib\libctru.a(archive_dev.o)
 .text          0x0000000000000000        0x0 C:/devkitPro/libctru/lib\libctru.a(fs.o)
 .data          0x0000000000000000        0x0 C:/devkitPro/libctru/lib\libctru.a(fs.o)
 .bss           0x0000000000000000        0x0 C:/devkitPro/libctru/lib\libctru.a(fs.o)
 .text.fsUseSession
                0x0000000000000000       0x18 C:/devkitPro/libctru/lib\libctru.a(fs.o)
 .text.fsEndUseSession
                0x0000000000000000       0x10 C:/devkitPro/libctru/lib\libctru.a(fs.o)
 .rodata.fsMakePath.str1.4
                0x0000000000000000        0x1 C:/devkitPro/libctru/lib\libctru.a(fs.o)
 .text.fsMakePath
                0x0000000000000000       0x84 C:/devkitPro/libctru/lib\libctru.a(fs.o)
 .text.fsGetSessionHandle
                0x0000000000000000        0xc C:/devkitPro/libctru/lib\libctru.a(fs.o)
 .text.FSUSER_Control
                0x0000000000000000       0x74 C:/devkitPro/libctru/lib\libctru.a(fs.o)
 .text.FSUSER_Initialize
                0x0000000000000000       0x28 C:/devkitPro/libctru/lib\libctru.a(fs.o)
 .text.FSUSER_OpenFileDirectly
                0x0000000000000000       0xd4 C:/devkitPro/libctru/lib\libctru.a(fs.o)
 .text.FSUSER_DeleteDirectoryRecursively
                0x0000000000000000       0xbc C:/devkitPro/libctru/lib\libctru.a(fs.o)
 .text.FSUSER_ControlArchive
                0x0000000000000000       0xb4 C:/devkitPro/libctru/lib\libctru.a(fs.o)
 .text.FSUSER_GetFreeBytes
                0x0000000000000000       0x90 C:/devkitPro/libctru/lib\libctru.a(fs.o)
 .text.FSUSER_GetCardType
                0x0000000000000000       0x58 C:/devkitPro/libctru/lib\libctru.a(fs.o)
 .text.FSUSER_GetNandArchiveResource
                0x0000000000000000       0x74 C:/devkitPro/libctru/lib\libctru.a(fs.o)
 .text.FSUSER_GetSdmcFatfsError
                0x0000000000000000       0x58 C:/devkitPro/libctru/lib\libctru.a(fs.o)
 .text.FSUSER_IsSdmcDetected
                0x0000000000000000       0x64 C:/devkitPro/libctru/lib\libctru.a(fs.o)
 .text.FSUSER_GetSdmcCid
                0x0000000000000000       0x58 C:/devkitPro/libctru/lib\libctru.a(fs.o)
 .text.FSUSER_GetNandCid
                0x0000000000000000       0x58 C:/devkitPro/libctru/lib\libctru.a(fs.o)
 .text.FSUSER_GetSdmcSpeedInfo
                0x0000000000000000       0x58 C:/devkitPro/libctru/lib\libctru.a(fs.o)
 .text.FSUSER_GetNandSpeedInfo
                0x0000000000000000       0x58 C:/devkitPro/libctru/lib\libctru.a(fs.o)
 .text.FSUSER_GetSdmcLog
                0x0000000000000000       0x58 C:/devkitPro/libctru/lib\libctru.a(fs.o)
 .text.FSUSER_GetNandLog
                0x0000000000000000       0x58 C:/devkitPro/libctru/lib\libctru.a(fs.o)
 .text.FSUSER_ClearSdmcLog
                0x0000000000000000       0x44 C:/devkitPro/libctru/lib\libctru.a(fs.o)
 .text.FSUSER_ClearNandLog
                0x0000000000000000       0x40 C:/devkitPro/libctru/lib\libctru.a(fs.o)
 .text.FSUSER_CardSlotIsInserted
                0x0000000000000000       0x64 C:/devkitPro/libctru/lib\libctru.a(fs.o)
 .text.FSUSER_CardSlotPowerOn
                0x0000000000000000       0x64 C:/devkitPro/libctru/lib\libctru.a(fs.o)
 .text.FSUSER_CardSlotPowerOff
                0x0000000000000000       0x64 C:/devkitPro/libctru/lib\libctru.a(fs.o)
 .text.FSUSER_CardSlotGetCardIFPowerStatus
                0x0000000000000000       0x64 C:/devkitPro/libctru/lib\libctru.a(fs.o)
 .text.FSUSER_CardNorDirectCommand
                0x0000000000000000       0x48 C:/devkitPro/libctru/lib\libctru.a(fs.o)
 .text.FSUSER_CardNorDirectCommandWithAddress
                0x0000000000000000       0x48 C:/devkitPro/libctru/lib\libctru.a(fs.o)
 .text.FSUSER_CardNorDirectRead
                0x0000000000000000       0x5c C:/devkitPro/libctru/lib\libctru.a(fs.o)
 .text.FSUSER_CardNorDirectReadWithAddress
                0x0000000000000000       0x5c C:/devkitPro/libctru/lib\libctru.a(fs.o)
 .text.FSUSER_CardNorDirectWrite
                0x0000000000000000       0x5c C:/devkitPro/libctru/lib\libctru.a(fs.o)
 .text.FSUSER_CardNorDirectWriteWithAddress
                0x0000000000000000       0x5c C:/devkitPro/libctru/lib\libctru.a(fs.o)
 .text.FSUSER_CardNorDirectRead_4xIO
                0x0000000000000000       0x5c C:/devkitPro/libctru/lib\libctru.a(fs.o)
 .text.FSUSER_CardNorDirectCpuWriteWithoutVerify
                0x0000000000000000       0x5c C:/devkitPro/libctru/lib\libctru.a(fs.o)
 .text.FSUSER_CardNorDirectSectorEraseWithoutVerify
                0x0000000000000000       0x48 C:/devkitPro/libctru/lib\libctru.a(fs.o)
 .text.FSUSER_GetProductInfo
                0x0000000000000000       0x80 C:/devkitPro/libctru/lib\libctru.a(fs.o)
 .text.FSUSER_GetProgramLaunchInfo
                0x0000000000000000       0x78 C:/devkitPro/libctru/lib\libctru.a(fs.o)
 .text.FSUSER_SetCardSpiBaudRate
                0x0000000000000000       0x48 C:/devkitPro/libctru/lib\libctru.a(fs.o)
 .text.FSUSER_SetCardSpiBusMode
                0x0000000000000000       0x48 C:/devkitPro/libctru/lib\libctru.a(fs.o)
 .text.FSUSER_SendInitializeInfoTo9
                0x0000000000000000       0x44 C:/devkitPro/libctru/lib\libctru.a(fs.o)
 .text.FSUSER_GetSpecialContentIndex
                0x0000000000000000       0x68 C:/devkitPro/libctru/lib\libctru.a(fs.o)
 .text.FSUSER_GetLegacyRomHeader
                0x0000000000000000       0x60 C:/devkitPro/libctru/lib\libctru.a(fs.o)
 .text.FSUSER_GetLegacyBannerData
                0x0000000000000000       0x60 C:/devkitPro/libctru/lib\libctru.a(fs.o)
 .text.FSUSER_CheckAuthorityToAccessExtSaveData
                0x0000000000000000       0x74 C:/devkitPro/libctru/lib\libctru.a(fs.o)
 .text.FSUSER_QueryTotalQuotaSize
                0x0000000000000000       0x78 C:/devkitPro/libctru/lib\libctru.a(fs.o)
 .text.FSUSER_AbnegateAccessRight
                0x0000000000000000       0x48 C:/devkitPro/libctru/lib\libctru.a(fs.o)
 .text.FSUSER_DeleteSdmcRoot
                0x0000000000000000       0x44 C:/devkitPro/libctru/lib\libctru.a(fs.o)
 .text.FSUSER_DeleteAllExtSaveDataOnNand
                0x0000000000000000       0x48 C:/devkitPro/libctru/lib\libctru.a(fs.o)
 .text.FSUSER_InitializeCtrFileSystem
                0x0000000000000000       0x44 C:/devkitPro/libctru/lib\libctru.a(fs.o)
 .text.FSUSER_CreateSeed
                0x0000000000000000       0x44 C:/devkitPro/libctru/lib\libctru.a(fs.o)
 .text.FSUSER_GetFormatInfo
                0x0000000000000000       0xc0 C:/devkitPro/libctru/lib\libctru.a(fs.o)
 .text.FSUSER_GetLegacyRomHeader2
                0x0000000000000000       0x64 C:/devkitPro/libctru/lib\libctru.a(fs.o)
 .text.FSUSER_GetSdmcCtrRootPath
                0x0000000000000000       0x58 C:/devkitPro/libctru/lib\libctru.a(fs.o)
 .text.FSUSER_GetArchiveResource
                0x0000000000000000       0x78 C:/devkitPro/libctru/lib\libctru.a(fs.o)
 .text.FSUSER_ExportIntegrityVerificationSeed
                0x0000000000000000       0x54 C:/devkitPro/libctru/lib\libctru.a(fs.o)
 .text.FSUSER_ImportIntegrityVerificationSeed
                0x0000000000000000       0x54 C:/devkitPro/libctru/lib\libctru.a(fs.o)
 .text.FSUSER_FormatSaveData
                0x0000000000000000       0xac C:/devkitPro/libctru/lib\libctru.a(fs.o)
 .text.FSUSER_GetLegacySubBannerData
                0x0000000000000000       0x64 C:/devkitPro/libctru/lib\libctru.a(fs.o)
 .rodata.FSUSER_UpdateSha256Context.str1.4
                0x0000000000000000       0x21 C:/devkitPro/libctru/lib\libctru.a(fs.o)
 .text.FSUSER_UpdateSha256Context
                0x0000000000000000      0x114 C:/devkitPro/libctru/lib\libctru.a(fs.o)
 .text.FSUSER_ReadSpecialFile
                0x0000000000000000       0x84 C:/devkitPro/libctru/lib\libctru.a(fs.o)
 .text.FSUSER_GetSpecialFileSize
                0x0000000000000000       0x60 C:/devkitPro/libctru/lib\libctru.a(fs.o)
 .text.FSUSER_CreateExtSaveData
                0x0000000000000000       0xa4 C:/devkitPro/libctru/lib\libctru.a(fs.o)
 .text.FSUSER_DeleteExtSaveData
                0x0000000000000000       0x68 C:/devkitPro/libctru/lib\libctru.a(fs.o)
 .text.FSUSER_ReadExtSaveDataIcon
                0x0000000000000000       0xa8 C:/devkitPro/libctru/lib\libctru.a(fs.o)
 .text.FSUSER_GetExtDataBlockSize
                0x0000000000000000       0xac C:/devkitPro/libctru/lib\libctru.a(fs.o)
 .text.FSUSER_EnumerateExtSaveData
                0x0000000000000000       0x80 C:/devkitPro/libctru/lib\libctru.a(fs.o)
 .text.FSUSER_CreateSystemSaveData
                0x0000000000000000       0x84 C:/devkitPro/libctru/lib\libctru.a(fs.o)
 .text.FSUSER_DeleteSystemSaveData
                0x0000000000000000       0x64 C:/devkitPro/libctru/lib\libctru.a(fs.o)
 .text.FSUSER_StartDeviceMoveAsSource
                0x0000000000000000       0x94 C:/devkitPro/libctru/lib\libctru.a(fs.o)
 .text.FSUSER_StartDeviceMoveAsDestination
                0x0000000000000000       0xa0 C:/devkitPro/libctru/lib\libctru.a(fs.o)
 .text.FSUSER_SetArchivePriority
                0x0000000000000000       0x80 C:/devkitPro/libctru/lib\libctru.a(fs.o)
 .text.FSUSER_GetArchivePriority
                0x0000000000000000       0x90 C:/devkitPro/libctru/lib\libctru.a(fs.o)
 .text.FSUSER_SetCtrCardLatencyParameter
                0x0000000000000000       0x4c C:/devkitPro/libctru/lib\libctru.a(fs.o)
 .text.FSUSER_SwitchCleanupInvalidSaveData
                0x0000000000000000       0x48 C:/devkitPro/libctru/lib\libctru.a(fs.o)
 .text.FSUSER_EnumerateSystemSaveData
                0x0000000000000000       0x6c C:/devkitPro/libctru/lib\libctru.a(fs.o)
 .text.FSUSER_InitializeWithSdkVersion
                0x0000000000000000       0x30 C:/devkitPro/libctru/lib\libctru.a(fs.o)
 .text.FSUSER_SetPriority
                0x0000000000000000       0x48 C:/devkitPro/libctru/lib\libctru.a(fs.o)
 .text.FSUSER_GetPriority
                0x0000000000000000       0x58 C:/devkitPro/libctru/lib\libctru.a(fs.o)
 .text.FSUSER_SetSaveDataSecureValue
                0x0000000000000000       0x5c C:/devkitPro/libctru/lib\libctru.a(fs.o)
 .text.FSUSER_GetSaveDataSecureValue
                0x0000000000000000       0x84 C:/devkitPro/libctru/lib\libctru.a(fs.o)
 .text.FSUSER_ControlSecureSave
                0x0000000000000000       0x74 C:/devkitPro/libctru/lib\libctru.a(fs.o)
 .text.FSUSER_GetMediaType
                0x0000000000000000       0x58 C:/devkitPro/libctru/lib\libctru.a(fs.o)
 .text.FSFILE_Control
                0x0000000000000000       0x58 C:/devkitPro/libctru/lib\libctru.a(fs.o)
 .text.FSFILE_OpenSubFile
                0x0000000000000000       0x4c C:/devkitPro/libctru/lib\libctru.a(fs.o)
 .text.FSFILE_GetAttributes
                0x0000000000000000       0x38 C:/devkitPro/libctru/lib\libctru.a(fs.o)
 .text.FSFILE_SetAttributes
                0x0000000000000000       0x28 C:/devkitPro/libctru/lib\libctru.a(fs.o)
 .text.FSFILE_SetPriority
                0x0000000000000000       0x28 C:/devkitPro/libctru/lib\libctru.a(fs.o)
 .text.FSFILE_GetPriority
                0x0000000000000000       0x38 C:/devkitPro/libctru/lib\libctru.a(fs.o)
 .text.FSFILE_OpenLinkFile
                0x0000000000000000       0x38 C:/devkitPro/libctru/lib\libctru.a(fs.o)
 .text.FSDIR_Control
                0x0000000000000000       0x58 C:/devkitPro/libctru/lib\libctru.a(fs.o)
 .text.FSDIR_SetPriority
                0x0000000000000000       0x28 C:/devkitPro/libctru/lib\libctru.a(fs.o)
 .text.FSDIR_GetPriority
                0x0000000000000000       0x38 C:/devkitPro/libctru/lib\libctru.a(fs.o)
 .comment       0x0000000000000000       0x24 C:/devkitPro/libctru/lib\libctru.a(fs.o)
 .text          0x0000000000000000        0x0 C:/devkitPro/libctru/lib\libctru.a(utf16_to_utf8.o)
 .data          0x0000000000000000        0x0 C:/devkitPro/libctru/lib\libctru.a(utf16_to_utf8.o)
 .bss           0x0000000000000000        0x0 C:/devkitPro/libctru/lib\libctru.a(utf16_to_utf8.o)
 .comment       0x0000000000000000       0x24 C:/devkitPro/libctru/lib\libctru.a(utf16_to_utf8.o)
 .text          0x0000000000000000        0x0 C:/devkitPro/libctru/lib\libctru.a(decode_utf16.o)
 .data          0x0000000000000000        0x0 C:/devkitPro/libctru/lib\libctru.a(decode_utf16.o)
 .bss           0x0000000000000000        0x0 C:/devkitPro/libctru/lib\libctru.a(decode_utf16.o)
 .comment       0x0000000000000000       0x24 C:/devkitPro/libctru/lib\libctru.a(decode_utf16.o)
 .text          0x0000000000000000        0x0 C:/devkitPro/libctru/lib\libctru.a(decode_utf8.o)
 .data          0x0000000000000000        0x0 C:/devkitPro/libctru/lib\libctru.a(decode_utf8.o)
 .bss           0x0000000000000000        0x0 C:/devkitPro/libctru/lib\libctru.a(decode_utf8.o)
 .comment       0x0000000000000000       0x24 C:/devkitPro/libctru/lib\libctru.a(decode_utf8.o)
 .text          0x0000000000000000        0x0 C:/devkitPro/libctru/lib\libctru.a(utf8_to_utf16.o)
 .data          0x0000000000000000        0x0 C:/devkitPro/libctru/lib\libctru.a(utf8_to_utf16.o)
 .bss           0x0000000000000000        0x0 C:/devkitPro/libctru/lib\libctru.a(utf8_to_utf16.o)
 .comment       0x0000000000000000       0x24 C:/devkitPro/libctru/lib\libctru.a(utf8_to_utf16.o)
 .text          0x0000000000000000        0x0 C:/devkitPro/libctru/lib\libctru.a(readtp.o)
 .data          0x0000000000000000        0x0 C:/devkitPro/libctru/lib\libctru.a(readtp.o)
 .bss           0x0000000000000000        0x0 C:/devkitPro/libctru/lib\libctru.a(readtp.o)
 .text          0x0000000000000000        0x0 C:/devkitPro/libctru/lib\libctru.a(path_buf.o)
 .data          0x0000000000000000        0x0 C:/devkitPro/libctru/lib\libctru.a(path_buf.o)
 .bss           0x0000000000000000        0x0 C:/devkitPro/libctru/lib\libctru.a(path_buf.o)
 .comment       0x0000000000000000       0x24 C:/devkitPro/libctru/lib\libctru.a(path_buf.o)
 .text          0x0000000000000000        0x0 C:/devkitPro/libctru/lib\libctru.a(encode_utf16.o)
 .data          0x0000000000000000        0x0 C:/devkitPro/libctru/lib\libctru.a(encode_utf16.o)
 .bss           0x0000000000000000        0x0 C:/devkitPro/libctru/lib\libctru.a(encode_utf16.o)
 .comment       0x0000000000000000       0x24 C:/devkitPro/libctru/lib\libctru.a(encode_utf16.o)
 .text          0x0000000000000000        0x0 C:/devkitPro/libctru/lib\libctru.a(encode_utf8.o)
 .data          0x0000000000000000        0x0 C:/devkitPro/libctru/lib\libctru.a(encode_utf8.o)
 .bss           0x0000000000000000        0x0 C:/devkitPro/libctru/lib\libctru.a(encode_utf8.o)
 .comment       0x0000000000000000       0x24 C:/devkitPro/libctru/lib\libctru.a(encode_utf8.o)
 .data          0x0000000000000000        0x0 c:/devkitpro/devkitarm/bin/../lib/gcc/arm-none-eabi/10.2.0/armv6k/fpu\libgcc.a(_aeabi_ldivmod.o)
 .bss           0x0000000000000000        0x0 c:/devkitpro/devkitarm/bin/../lib/gcc/arm-none-eabi/10.2.0/armv6k/fpu\libgcc.a(_aeabi_ldivmod.o)
 .text          0x0000000000000000       0x3c c:/devkitpro/devkitarm/bin/../lib/gcc/arm-none-eabi/10.2.0/armv6k/fpu\libgcc.a(_aeabi_uldivmod.o)
 .data          0x0000000000000000        0x0 c:/devkitpro/devkitarm/bin/../lib/gcc/arm-none-eabi/10.2.0/armv6k/fpu\libgcc.a(_aeabi_uldivmod.o)
 .bss           0x0000000000000000        0x0 c:/devkitpro/devkitarm/bin/../lib/gcc/arm-none-eabi/10.2.0/armv6k/fpu\libgcc.a(_aeabi_uldivmod.o)
 .ARM.attributes
                0x0000000000000000       0x1c c:/devkitpro/devkitarm/bin/../lib/gcc/arm-none-eabi/10.2.0/armv6k/fpu\libgcc.a(_aeabi_uldivmod.o)
 .text          0x0000000000000000        0x0 c:/devkitpro/devkitarm/bin/../lib/gcc/arm-none-eabi/10.2.0/armv6k/fpu\libgcc.a(_udivmoddi4.o)
 .data          0x0000000000000000        0x0 c:/devkitpro/devkitarm/bin/../lib/gcc/arm-none-eabi/10.2.0/armv6k/fpu\libgcc.a(_udivmoddi4.o)
 .bss           0x0000000000000000        0x0 c:/devkitpro/devkitarm/bin/../lib/gcc/arm-none-eabi/10.2.0/armv6k/fpu\libgcc.a(_udivmoddi4.o)
 .comment       0x0000000000000000       0x24 c:/devkitpro/devkitarm/bin/../lib/gcc/arm-none-eabi/10.2.0/armv6k/fpu\libgcc.a(_udivmoddi4.o)
 .data          0x0000000000000000        0x0 c:/devkitpro/devkitarm/bin/../lib/gcc/arm-none-eabi/10.2.0/armv6k/fpu\libgcc.a(_dvmd_tls.o)
 .bss           0x0000000000000000        0x0 c:/devkitpro/devkitarm/bin/../lib/gcc/arm-none-eabi/10.2.0/armv6k/fpu\libgcc.a(_dvmd_tls.o)
 .text          0x0000000000000000        0x0 c:/devkitpro/devkitarm/bin/../lib/gcc/arm-none-eabi/10.2.0/../../../../arm-none-eabi/lib/armv6k/fpu\libg.a(lib_a-bsearch.o)
 .data          0x0000000000000000        0x0 c:/devkitpro/devkitarm/bin/../lib/gcc/arm-none-eabi/10.2.0/../../../../arm-none-eabi/lib/armv6k/fpu\libg.a(lib_a-bsearch.o)
 .bss           0x0000000000000000        0x0 c:/devkitpro/devkitarm/bin/../lib/gcc/arm-none-eabi/10.2.0/../../../../arm-none-eabi/lib/armv6k/fpu\libg.a(lib_a-bsearch.o)
 .comment       0x0000000000000000       0x24 c:/devkitpro/devkitarm/bin/../lib/gcc/arm-none-eabi/10.2.0/../../../../arm-none-eabi/lib/armv6k/fpu\libg.a(lib_a-bsearch.o)
 .text          0x0000000000000000        0x0 c:/devkitpro/devkitarm/bin/../lib/gcc/arm-none-eabi/10.2.0/../../../../arm-none-eabi/lib/armv6k/fpu\libg.a(lib_a-calloc.o)
 .data          0x0000000000000000        0x0 c:/devkitpro/devkitarm/bin/../lib/gcc/arm-none-eabi/10.2.0/../../../../arm-none-eabi/lib/armv6k/fpu\libg.a(lib_a-calloc.o)
 .bss           0x0000000000000000        0x0 c:/devkitpro/devkitarm/bin/../lib/gcc/arm-none-eabi/10.2.0/../../../../arm-none-eabi/lib/armv6k/fpu\libg.a(lib_a-calloc.o)
 .comment       0x0000000000000000       0x24 c:/devkitpro/devkitarm/bin/../lib/gcc/arm-none-eabi/10.2.0/../../../../arm-none-eabi/lib/armv6k/fpu\libg.a(lib_a-calloc.o)
 .text          0x0000000000000000        0x0 c:/devkitpro/devkitarm/bin/../lib/gcc/arm-none-eabi/10.2.0/../../../../arm-none-eabi/lib/armv6k/fpu\libg.a(lib_a-callocr.o)
 .data          0x0000000000000000        0x0 c:/devkitpro/devkitarm/bin/../lib/gcc/arm-none-eabi/10.2.0/../../../../arm-none-eabi/lib/armv6k/fpu\libg.a(lib_a-callocr.o)
 .bss           0x0000000000000000        0x0 c:/devkitpro/devkitarm/bin/../lib/gcc/arm-none-eabi/10.2.0/../../../../arm-none-eabi/lib/armv6k/fpu\libg.a(lib_a-callocr.o)
 .comment       0x0000000000000000       0x24 c:/devkitpro/devkitarm/bin/../lib/gcc/arm-none-eabi/10.2.0/../../../../arm-none-eabi/lib/armv6k/fpu\libg.a(lib_a-callocr.o)
 .text          0x0000000000000000        0x0 c:/devkitpro/devkitarm/bin/../lib/gcc/arm-none-eabi/10.2.0/../../../../arm-none-eabi/lib/armv6k/fpu\libg.a(lib_a-errno.o)
 .data          0x0000000000000000        0x0 c:/devkitpro/devkitarm/bin/../lib/gcc/arm-none-eabi/10.2.0/../../../../arm-none-eabi/lib/armv6k/fpu\libg.a(lib_a-errno.o)
 .bss           0x0000000000000000        0x0 c:/devkitpro/devkitarm/bin/../lib/gcc/arm-none-eabi/10.2.0/../../../../arm-none-eabi/lib/armv6k/fpu\libg.a(lib_a-errno.o)
 .text.__errno  0x0000000000000000        0xc c:/devkitpro/devkitarm/bin/../lib/gcc/arm-none-eabi/10.2.0/../../../../arm-none-eabi/lib/armv6k/fpu\libg.a(lib_a-errno.o)
 .comment       0x0000000000000000       0x24 c:/devkitpro/devkitarm/bin/../lib/gcc/arm-none-eabi/10.2.0/../../../../arm-none-eabi/lib/armv6k/fpu\libg.a(lib_a-errno.o)
 .ARM.attributes
                0x0000000000000000       0x30 c:/devkitpro/devkitarm/bin/../lib/gcc/arm-none-eabi/10.2.0/../../../../arm-none-eabi/lib/armv6k/fpu\libg.a(lib_a-errno.o)
 .text          0x0000000000000000        0x0 c:/devkitpro/devkitarm/bin/../lib/gcc/arm-none-eabi/10.2.0/../../../../arm-none-eabi/lib/armv6k/fpu\libg.a(lib_a-exit.o)
 .data          0x0000000000000000        0x0 c:/devkitpro/devkitarm/bin/../lib/gcc/arm-none-eabi/10.2.0/../../../../arm-none-eabi/lib/armv6k/fpu\libg.a(lib_a-exit.o)
 .bss           0x0000000000000000        0x0 c:/devkitpro/devkitarm/bin/../lib/gcc/arm-none-eabi/10.2.0/../../../../arm-none-eabi/lib/armv6k/fpu\libg.a(lib_a-exit.o)
 .comment       0x0000000000000000       0x24 c:/devkitpro/devkitarm/bin/../lib/gcc/arm-none-eabi/10.2.0/../../../../arm-none-eabi/lib/armv6k/fpu\libg.a(lib_a-exit.o)
 .text          0x0000000000000000        0x0 c:/devkitpro/devkitarm/bin/../lib/gcc/arm-none-eabi/10.2.0/../../../../arm-none-eabi/lib/armv6k/fpu\libg.a(lib_a-fini.o)
 .data          0x0000000000000000        0x0 c:/devkitpro/devkitarm/bin/../lib/gcc/arm-none-eabi/10.2.0/../../../../arm-none-eabi/lib/armv6k/fpu\libg.a(lib_a-fini.o)
 .bss           0x0000000000000000        0x0 c:/devkitpro/devkitarm/bin/../lib/gcc/arm-none-eabi/10.2.0/../../../../arm-none-eabi/lib/armv6k/fpu\libg.a(lib_a-fini.o)
 .comment       0x0000000000000000       0x24 c:/devkitpro/devkitarm/bin/../lib/gcc/arm-none-eabi/10.2.0/../../../../arm-none-eabi/lib/armv6k/fpu\libg.a(lib_a-fini.o)
 .text          0x0000000000000000        0x0 c:/devkitpro/devkitarm/bin/../lib/gcc/arm-none-eabi/10.2.0/../../../../arm-none-eabi/lib/armv6k/fpu\libg.a(lib_a-impure.o)
 .data          0x0000000000000000        0x0 c:/devkitpro/devkitarm/bin/../lib/gcc/arm-none-eabi/10.2.0/../../../../arm-none-eabi/lib/armv6k/fpu\libg.a(lib_a-impure.o)
 .bss           0x0000000000000000        0x0 c:/devkitpro/devkitarm/bin/../lib/gcc/arm-none-eabi/10.2.0/../../../../arm-none-eabi/lib/armv6k/fpu\libg.a(lib_a-impure.o)
 .comment       0x0000000000000000       0x24 c:/devkitpro/devkitarm/bin/../lib/gcc/arm-none-eabi/10.2.0/../../../../arm-none-eabi/lib/armv6k/fpu\libg.a(lib_a-impure.o)
 .text          0x0000000000000000        0x0 c:/devkitpro/devkitarm/bin/../lib/gcc/arm-none-eabi/10.2.0/../../../../arm-none-eabi/lib/armv6k/fpu\libg.a(lib_a-init.o)
 .data          0x0000000000000000        0x0 c:/devkitpro/devkitarm/bin/../lib/gcc/arm-none-eabi/10.2.0/../../../../arm-none-eabi/lib/armv6k/fpu\libg.a(lib_a-init.o)
 .bss           0x0000000000000000        0x0 c:/devkitpro/devkitarm/bin/../lib/gcc/arm-none-eabi/10.2.0/../../../../arm-none-eabi/lib/armv6k/fpu\libg.a(lib_a-init.o)
 .comment       0x0000000000000000       0x24 c:/devkitpro/devkitarm/bin/../lib/gcc/arm-none-eabi/10.2.0/../../../../arm-none-eabi/lib/armv6k/fpu\libg.a(lib_a-init.o)
 .text          0x0000000000000000        0x0 c:/devkitpro/devkitarm/bin/../lib/gcc/arm-none-eabi/10.2.0/../../../../arm-none-eabi/lib/armv6k/fpu\libg.a(lib_a-malign.o)
 .data          0x0000000000000000        0x0 c:/devkitpro/devkitarm/bin/../lib/gcc/arm-none-eabi/10.2.0/../../../../arm-none-eabi/lib/armv6k/fpu\libg.a(lib_a-malign.o)
 .bss           0x0000000000000000        0x0 c:/devkitpro/devkitarm/bin/../lib/gcc/arm-none-eabi/10.2.0/../../../../arm-none-eabi/lib/armv6k/fpu\libg.a(lib_a-malign.o)
 .comment       0x0000000000000000       0x24 c:/devkitpro/devkitarm/bin/../lib/gcc/arm-none-eabi/10.2.0/../../../../arm-none-eabi/lib/armv6k/fpu\libg.a(lib_a-malign.o)
 .text          0x0000000000000000        0x0 c:/devkitpro/devkitarm/bin/../lib/gcc/arm-none-eabi/10.2.0/../../../../arm-none-eabi/lib/armv6k/fpu\libg.a(lib_a-malignr.o)
 .data          0x0000000000000000        0x0 c:/devkitpro/devkitarm/bin/../lib/gcc/arm-none-eabi/10.2.0/../../../../arm-none-eabi/lib/armv6k/fpu\libg.a(lib_a-malignr.o)
 .bss           0x0000000000000000        0x0 c:/devkitpro/devkitarm/bin/../lib/gcc/arm-none-eabi/10.2.0/../../../../arm-none-eabi/lib/armv6k/fpu\libg.a(lib_a-malignr.o)
 .comment       0x0000000000000000       0x24 c:/devkitpro/devkitarm/bin/../lib/gcc/arm-none-eabi/10.2.0/../../../../arm-none-eabi/lib/armv6k/fpu\libg.a(lib_a-malignr.o)
 .text          0x0000000000000000        0x0 c:/devkitpro/devkitarm/bin/../lib/gcc/arm-none-eabi/10.2.0/../../../../arm-none-eabi/lib/armv6k/fpu\libg.a(lib_a-malloc.o)
 .data          0x0000000000000000        0x0 c:/devkitpro/devkitarm/bin/../lib/gcc/arm-none-eabi/10.2.0/../../../../arm-none-eabi/lib/armv6k/fpu\libg.a(lib_a-malloc.o)
 .bss           0x0000000000000000        0x0 c:/devkitpro/devkitarm/bin/../lib/gcc/arm-none-eabi/10.2.0/../../../../arm-none-eabi/lib/armv6k/fpu\libg.a(lib_a-malloc.o)
 .comment       0x0000000000000000       0x24 c:/devkitpro/devkitarm/bin/../lib/gcc/arm-none-eabi/10.2.0/../../../../arm-none-eabi/lib/armv6k/fpu\libg.a(lib_a-malloc.o)
 .text          0x0000000000000000        0x0 c:/devkitpro/devkitarm/bin/../lib/gcc/arm-none-eabi/10.2.0/../../../../arm-none-eabi/lib/armv6k/fpu\libg.a(lib_a-mallocr.o)
 .data          0x0000000000000000        0x0 c:/devkitpro/devkitarm/bin/../lib/gcc/arm-none-eabi/10.2.0/../../../../arm-none-eabi/lib/armv6k/fpu\libg.a(lib_a-mallocr.o)
 .bss           0x0000000000000000        0x0 c:/devkitpro/devkitarm/bin/../lib/gcc/arm-none-eabi/10.2.0/../../../../arm-none-eabi/lib/armv6k/fpu\libg.a(lib_a-mallocr.o)
 .comment       0x0000000000000000       0x24 c:/devkitpro/devkitarm/bin/../lib/gcc/arm-none-eabi/10.2.0/../../../../arm-none-eabi/lib/armv6k/fpu\libg.a(lib_a-mallocr.o)
 .text          0x0000000000000000        0x0 c:/devkitpro/devkitarm/bin/../lib/gcc/arm-none-eabi/10.2.0/../../../../arm-none-eabi/lib/armv6k/fpu\libg.a(lib_a-memcpy-stub.o)
 .data          0x0000000000000000        0x0 c:/devkitpro/devkitarm/bin/../lib/gcc/arm-none-eabi/10.2.0/../../../../arm-none-eabi/lib/armv6k/fpu\libg.a(lib_a-memcpy-stub.o)
 .bss           0x0000000000000000        0x0 c:/devkitpro/devkitarm/bin/../lib/gcc/arm-none-eabi/10.2.0/../../../../arm-none-eabi/lib/armv6k/fpu\libg.a(lib_a-memcpy-stub.o)
 .comment       0x0000000000000000       0x24 c:/devkitpro/devkitarm/bin/../lib/gcc/arm-none-eabi/10.2.0/../../../../arm-none-eabi/lib/armv6k/fpu\libg.a(lib_a-memcpy-stub.o)
 .text          0x0000000000000000        0x0 c:/devkitpro/devkitarm/bin/../lib/gcc/arm-none-eabi/10.2.0/../../../../arm-none-eabi/lib/armv6k/fpu\libg.a(lib_a-memset.o)
 .data          0x0000000000000000        0x0 c:/devkitpro/devkitarm/bin/../lib/gcc/arm-none-eabi/10.2.0/../../../../arm-none-eabi/lib/armv6k/fpu\libg.a(lib_a-memset.o)
 .bss           0x0000000000000000        0x0 c:/devkitpro/devkitarm/bin/../lib/gcc/arm-none-eabi/10.2.0/../../../../arm-none-eabi/lib/armv6k/fpu\libg.a(lib_a-memset.o)
 .comment       0x0000000000000000       0x24 c:/devkitpro/devkitarm/bin/../lib/gcc/arm-none-eabi/10.2.0/../../../../arm-none-eabi/lib/armv6k/fpu\libg.a(lib_a-memset.o)
 .text          0x0000000000000000        0x0 c:/devkitpro/devkitarm/bin/../lib/gcc/arm-none-eabi/10.2.0/../../../../arm-none-eabi/lib/armv6k/fpu\libg.a(lib_a-mlock.o)
 .data          0x0000000000000000        0x0 c:/devkitpro/devkitarm/bin/../lib/gcc/arm-none-eabi/10.2.0/../../../../arm-none-eabi/lib/armv6k/fpu\libg.a(lib_a-mlock.o)
 .bss           0x0000000000000000        0x0 c:/devkitpro/devkitarm/bin/../lib/gcc/arm-none-eabi/10.2.0/../../../../arm-none-eabi/lib/armv6k/fpu\libg.a(lib_a-mlock.o)
 .comment       0x0000000000000000       0x24 c:/devkitpro/devkitarm/bin/../lib/gcc/arm-none-eabi/10.2.0/../../../../arm-none-eabi/lib/armv6k/fpu\libg.a(lib_a-mlock.o)
 .data          0x0000000000000000        0x0 c:/devkitpro/devkitarm/bin/../lib/gcc/arm-none-eabi/10.2.0/../../../../arm-none-eabi/lib/armv6k/fpu\libg.a(lib_a-strcmp.o)
 .bss           0x0000000000000000        0x0 c:/devkitpro/devkitarm/bin/../lib/gcc/arm-none-eabi/10.2.0/../../../../arm-none-eabi/lib/armv6k/fpu\libg.a(lib_a-strcmp.o)
 .text          0x0000000000000000        0x0 c:/devkitpro/devkitarm/bin/../lib/gcc/arm-none-eabi/10.2.0/../../../../arm-none-eabi/lib/armv6k/fpu\libg.a(lib_a-strlen-stub.o)
 .data          0x0000000000000000        0x0 c:/devkitpro/devkitarm/bin/../lib/gcc/arm-none-eabi/10.2.0/../../../../arm-none-eabi/lib/armv6k/fpu\libg.a(lib_a-strlen-stub.o)
 .bss           0x0000000000000000        0x0 c:/devkitpro/devkitarm/bin/../lib/gcc/arm-none-eabi/10.2.0/../../../../arm-none-eabi/lib/armv6k/fpu\libg.a(lib_a-strlen-stub.o)
 .comment       0x0000000000000000       0x24 c:/devkitpro/devkitarm/bin/../lib/gcc/arm-none-eabi/10.2.0/../../../../arm-none-eabi/lib/armv6k/fpu\libg.a(lib_a-strlen-stub.o)
 .text          0x0000000000000000        0x0 c:/devkitpro/devkitarm/bin/../lib/gcc/arm-none-eabi/10.2.0/../../../../arm-none-eabi/lib/armv6k/fpu\libg.a(lib_a-strncat.o)
 .data          0x0000000000000000        0x0 c:/devkitpro/devkitarm/bin/../lib/gcc/arm-none-eabi/10.2.0/../../../../arm-none-eabi/lib/armv6k/fpu\libg.a(lib_a-strncat.o)
 .bss           0x0000000000000000        0x0 c:/devkitpro/devkitarm/bin/../lib/gcc/arm-none-eabi/10.2.0/../../../../arm-none-eabi/lib/armv6k/fpu\libg.a(lib_a-strncat.o)
 .comment       0x0000000000000000       0x24 c:/devkitpro/devkitarm/bin/../lib/gcc/arm-none-eabi/10.2.0/../../../../arm-none-eabi/lib/armv6k/fpu\libg.a(lib_a-strncat.o)
 .text          0x0000000000000000        0x0 c:/devkitpro/devkitarm/bin/../lib/gcc/arm-none-eabi/10.2.0/../../../../arm-none-eabi/lib/armv6k/fpu\libg.a(lib_a-strncmp.o)
 .data          0x0000000000000000        0x0 c:/devkitpro/devkitarm/bin/../lib/gcc/arm-none-eabi/10.2.0/../../../../arm-none-eabi/lib/armv6k/fpu\libg.a(lib_a-strncmp.o)
 .bss           0x0000000000000000        0x0 c:/devkitpro/devkitarm/bin/../lib/gcc/arm-none-eabi/10.2.0/../../../../arm-none-eabi/lib/armv6k/fpu\libg.a(lib_a-strncmp.o)
 .comment       0x0000000000000000       0x24 c:/devkitpro/devkitarm/bin/../lib/gcc/arm-none-eabi/10.2.0/../../../../arm-none-eabi/lib/armv6k/fpu\libg.a(lib_a-strncmp.o)
 .text          0x0000000000000000        0x0 c:/devkitpro/devkitarm/bin/../lib/gcc/arm-none-eabi/10.2.0/../../../../arm-none-eabi/lib/armv6k/fpu\libg.a(lib_a-strncpy.o)
 .data          0x0000000000000000        0x0 c:/devkitpro/devkitarm/bin/../lib/gcc/arm-none-eabi/10.2.0/../../../../arm-none-eabi/lib/armv6k/fpu\libg.a(lib_a-strncpy.o)
 .bss           0x0000000000000000        0x0 c:/devkitpro/devkitarm/bin/../lib/gcc/arm-none-eabi/10.2.0/../../../../arm-none-eabi/lib/armv6k/fpu\libg.a(lib_a-strncpy.o)
 .comment       0x0000000000000000       0x24 c:/devkitpro/devkitarm/bin/../lib/gcc/arm-none-eabi/10.2.0/../../../../arm-none-eabi/lib/armv6k/fpu\libg.a(lib_a-strncpy.o)
 .text          0x0000000000000000        0x0 c:/devkitpro/devkitarm/bin/../lib/gcc/arm-none-eabi/10.2.0/../../../../arm-none-eabi/lib/armv6k/fpu\libg.a(lib_a-strnlen.o)
 .data          0x0000000000000000        0x0 c:/devkitpro/devkitarm/bin/../lib/gcc/arm-none-eabi/10.2.0/../../../../arm-none-eabi/lib/armv6k/fpu\libg.a(lib_a-strnlen.o)
 .bss           0x0000000000000000        0x0 c:/devkitpro/devkitarm/bin/../lib/gcc/arm-none-eabi/10.2.0/../../../../arm-none-eabi/lib/armv6k/fpu\libg.a(lib_a-strnlen.o)
 .comment       0x0000000000000000       0x24 c:/devkitpro/devkitarm/bin/../lib/gcc/arm-none-eabi/10.2.0/../../../../arm-none-eabi/lib/armv6k/fpu\libg.a(lib_a-strnlen.o)
 .text          0x0000000000000000        0x0 c:/devkitpro/devkitarm/bin/../lib/gcc/arm-none-eabi/10.2.0/../../../../arm-none-eabi/lib/armv6k/fpu\libg.a(lib_a-__call_atexit.o)
 .data          0x0000000000000000        0x0 c:/devkitpro/devkitarm/bin/../lib/gcc/arm-none-eabi/10.2.0/../../../../arm-none-eabi/lib/armv6k/fpu\libg.a(lib_a-__call_atexit.o)
 .bss           0x0000000000000000        0x0 c:/devkitpro/devkitarm/bin/../lib/gcc/arm-none-eabi/10.2.0/../../../../arm-none-eabi/lib/armv6k/fpu\libg.a(lib_a-__call_atexit.o)
 .comment       0x0000000000000000       0x24 c:/devkitpro/devkitarm/bin/../lib/gcc/arm-none-eabi/10.2.0/../../../../arm-none-eabi/lib/armv6k/fpu\libg.a(lib_a-__call_atexit.o)
 .text          0x0000000000000000        0x0 c:/devkitpro/devkitarm/bin/../lib/gcc/arm-none-eabi/10.2.0/../../../../arm-none-eabi/lib/armv6k/fpu\libg.a(lib_a-freer.o)
 .data          0x0000000000000000        0x0 c:/devkitpro/devkitarm/bin/../lib/gcc/arm-none-eabi/10.2.0/../../../../arm-none-eabi/lib/armv6k/fpu\libg.a(lib_a-freer.o)
 .bss           0x0000000000000000        0x0 c:/devkitpro/devkitarm/bin/../lib/gcc/arm-none-eabi/10.2.0/../../../../arm-none-eabi/lib/armv6k/fpu\libg.a(lib_a-freer.o)
 .comment       0x0000000000000000       0x24 c:/devkitpro/devkitarm/bin/../lib/gcc/arm-none-eabi/10.2.0/../../../../arm-none-eabi/lib/armv6k/fpu\libg.a(lib_a-freer.o)
 .text          0x0000000000000000        0x0 c:/devkitpro/devkitarm/bin/../lib/gcc/arm-none-eabi/10.2.0/../../../../arm-none-eabi/lib/armv6k/fpu\libsysbase.a(iosupport.o)
 .data          0x0000000000000000        0x0 c:/devkitpro/devkitarm/bin/../lib/gcc/arm-none-eabi/10.2.0/../../../../arm-none-eabi/lib/armv6k/fpu\libsysbase.a(iosupport.o)
 .bss           0x0000000000000000        0x0 c:/devkitpro/devkitarm/bin/../lib/gcc/arm-none-eabi/10.2.0/../../../../arm-none-eabi/lib/armv6k/fpu\libsysbase.a(iosupport.o)
 .comment       0x0000000000000000       0x24 c:/devkitpro/devkitarm/bin/../lib/gcc/arm-none-eabi/10.2.0/../../../../arm-none-eabi/lib/armv6k/fpu\libsysbase.a(iosupport.o)
 .text          0x0000000000000000        0x0 c:/devkitpro/devkitarm/bin/../lib/gcc/arm-none-eabi/10.2.0/../../../../arm-none-eabi/lib/armv6k/fpu\libsysbase.a(sbrk.o)
 .data          0x0000000000000000        0x0 c:/devkitpro/devkitarm/bin/../lib/gcc/arm-none-eabi/10.2.0/../../../../arm-none-eabi/lib/armv6k/fpu\libsysbase.a(sbrk.o)
 .bss           0x0000000000000000        0x0 c:/devkitpro/devkitarm/bin/../lib/gcc/arm-none-eabi/10.2.0/../../../../arm-none-eabi/lib/armv6k/fpu\libsysbase.a(sbrk.o)
 .comment       0x0000000000000000       0x24 c:/devkitpro/devkitarm/bin/../lib/gcc/arm-none-eabi/10.2.0/../../../../arm-none-eabi/lib/armv6k/fpu\libsysbase.a(sbrk.o)
 .text          0x0000000000000000        0x0 c:/devkitpro/devkitarm/bin/../lib/gcc/arm-none-eabi/10.2.0/../../../../arm-none-eabi/lib/armv6k/fpu\libsysbase.a(_exit.o)
 .data          0x0000000000000000        0x0 c:/devkitpro/devkitarm/bin/../lib/gcc/arm-none-eabi/10.2.0/../../../../arm-none-eabi/lib/armv6k/fpu\libsysbase.a(_exit.o)
 .bss           0x0000000000000000        0x0 c:/devkitpro/devkitarm/bin/../lib/gcc/arm-none-eabi/10.2.0/../../../../arm-none-eabi/lib/armv6k/fpu\libsysbase.a(_exit.o)
 .comment       0x0000000000000000       0x24 c:/devkitpro/devkitarm/bin/../lib/gcc/arm-none-eabi/10.2.0/../../../../arm-none-eabi/lib/armv6k/fpu\libsysbase.a(_exit.o)
 .text          0x0000000000000000        0x0 c:/devkitpro/devkitarm/bin/../lib/gcc/arm-none-eabi/10.2.0/../../../../arm-none-eabi/lib/armv6k/fpu\libsysbase.a(malloc_vars.o)
 .data          0x0000000000000000        0x0 c:/devkitpro/devkitarm/bin/../lib/gcc/arm-none-eabi/10.2.0/../../../../arm-none-eabi/lib/armv6k/fpu\libsysbase.a(malloc_vars.o)
 .bss           0x0000000000000000        0x0 c:/devkitpro/devkitarm/bin/../lib/gcc/arm-none-eabi/10.2.0/../../../../arm-none-eabi/lib/armv6k/fpu\libsysbase.a(malloc_vars.o)
 .comment       0x0000000000000000       0x24 c:/devkitpro/devkitarm/bin/../lib/gcc/arm-none-eabi/10.2.0/../../../../arm-none-eabi/lib/armv6k/fpu\libsysbase.a(malloc_vars.o)
 .text          0x0000000000000000        0x0 c:/devkitpro/devkitarm/bin/../lib/gcc/arm-none-eabi/10.2.0/../../../../arm-none-eabi/lib/armv6k/fpu\libsysbase.a(chdir.o)
 .data          0x0000000000000000        0x0 c:/devkitpro/devkitarm/bin/../lib/gcc/arm-none-eabi/10.2.0/../../../../arm-none-eabi/lib/armv6k/fpu\libsysbase.a(chdir.o)
 .bss           0x0000000000000000        0x0 c:/devkitpro/devkitarm/bin/../lib/gcc/arm-none-eabi/10.2.0/../../../../arm-none-eabi/lib/armv6k/fpu\libsysbase.a(chdir.o)
 .text.getcwd   0x0000000000000000       0xa0 c:/devkitpro/devkitarm/bin/../lib/gcc/arm-none-eabi/10.2.0/../../../../arm-none-eabi/lib/armv6k/fpu\libsysbase.a(chdir.o)
 .rodata.DIRECTORY_PARENT
                0x0000000000000000        0x3 c:/devkitpro/devkitarm/bin/../lib/gcc/arm-none-eabi/10.2.0/../../../../arm-none-eabi/lib/armv6k/fpu\libsysbase.a(chdir.o)
 .rodata.DIRECTORY_SEPARATOR
                0x0000000000000000        0x2 c:/devkitpro/devkitarm/bin/../lib/gcc/arm-none-eabi/10.2.0/../../../../arm-none-eabi/lib/armv6k/fpu\libsysbase.a(chdir.o)
 .rodata.DIRECTORY_THIS
                0x0000000000000000        0x2 c:/devkitpro/devkitarm/bin/../lib/gcc/arm-none-eabi/10.2.0/../../../../arm-none-eabi/lib/armv6k/fpu\libsysbase.a(chdir.o)
 .comment       0x0000000000000000       0x24 c:/devkitpro/devkitarm/bin/../lib/gcc/arm-none-eabi/10.2.0/../../../../arm-none-eabi/lib/armv6k/fpu\libsysbase.a(chdir.o)
 .text          0x0000000000000000        0x0 c:/devkitpro/devkitarm/bin/../lib/gcc/arm-none-eabi/10.2.0/../../../../arm-none-eabi/lib/armv6k/fpu\libsysbase.a(syscall_support.o)
 .data          0x0000000000000000        0x0 c:/devkitpro/devkitarm/bin/../lib/gcc/arm-none-eabi/10.2.0/../../../../arm-none-eabi/lib/armv6k/fpu\libsysbase.a(syscall_support.o)
 .bss           0x0000000000000000        0x0 c:/devkitpro/devkitarm/bin/../lib/gcc/arm-none-eabi/10.2.0/../../../../arm-none-eabi/lib/armv6k/fpu\libsysbase.a(syscall_support.o)
 .text.__libc_lock_init
                0x0000000000000000       0x18 c:/devkitpro/devkitarm/bin/../lib/gcc/arm-none-eabi/10.2.0/../../../../arm-none-eabi/lib/armv6k/fpu\libsysbase.a(syscall_support.o)
 .text.__libc_lock_acquire
                0x0000000000000000       0x18 c:/devkitpro/devkitarm/bin/../lib/gcc/arm-none-eabi/10.2.0/../../../../arm-none-eabi/lib/armv6k/fpu\libsysbase.a(syscall_support.o)
 .text.__libc_lock_try_acquire
                0x0000000000000000       0x24 c:/devkitpro/devkitarm/bin/../lib/gcc/arm-none-eabi/10.2.0/../../../../arm-none-eabi/lib/armv6k/fpu\libsysbase.a(syscall_support.o)
 .text.__libc_lock_release
                0x0000000000000000       0x18 c:/devkitpro/devkitarm/bin/../lib/gcc/arm-none-eabi/10.2.0/../../../../arm-none-eabi/lib/armv6k/fpu\libsysbase.a(syscall_support.o)
 .text.__libc_lock_close
                0x0000000000000000       0x18 c:/devkitpro/devkitarm/bin/../lib/gcc/arm-none-eabi/10.2.0/../../../../arm-none-eabi/lib/armv6k/fpu\libsysbase.a(syscall_support.o)
 .text.__libc_lock_init_recursive
                0x0000000000000000       0x18 c:/devkitpro/devkitarm/bin/../lib/gcc/arm-none-eabi/10.2.0/../../../../arm-none-eabi/lib/armv6k/fpu\libsysbase.a(syscall_support.o)
 .text.__libc_lock_try_acquire_recursive
                0x0000000000000000       0x24 c:/devkitpro/devkitarm/bin/../lib/gcc/arm-none-eabi/10.2.0/../../../../arm-none-eabi/lib/armv6k/fpu\libsysbase.a(syscall_support.o)
 .text.__libc_lock_close_recursive
                0x0000000000000000       0x18 c:/devkitpro/devkitarm/bin/../lib/gcc/arm-none-eabi/10.2.0/../../../../arm-none-eabi/lib/armv6k/fpu\libsysbase.a(syscall_support.o)
 .comment       0x0000000000000000       0x24 c:/devkitpro/devkitarm/bin/../lib/gcc/arm-none-eabi/10.2.0/../../../../arm-none-eabi/lib/armv6k/fpu\libsysbase.a(syscall_support.o)
 .text          0x0000000000000000        0x0 c:/devkitpro/devkitarm/bin/../lib/gcc/arm-none-eabi/10.2.0/../../../../arm-none-eabi/lib/armv6k/fpu\libsysbase.a(getreent.o)
 .data          0x0000000000000000        0x0 c:/devkitpro/devkitarm/bin/../lib/gcc/arm-none-eabi/10.2.0/../../../../arm-none-eabi/lib/armv6k/fpu\libsysbase.a(getreent.o)
 .bss           0x0000000000000000        0x0 c:/devkitpro/devkitarm/bin/../lib/gcc/arm-none-eabi/10.2.0/../../../../arm-none-eabi/lib/armv6k/fpu\libsysbase.a(getreent.o)
 .comment       0x0000000000000000       0x24 c:/devkitpro/devkitarm/bin/../lib/gcc/arm-none-eabi/10.2.0/../../../../arm-none-eabi/lib/armv6k/fpu\libsysbase.a(getreent.o)
 .data          0x0000000000000000        0x0 c:/devkitpro/devkitarm/bin/../lib/gcc/arm-none-eabi/10.2.0/armv6k/fpu\libgcc.a(_udivsi3.o)
 .bss           0x0000000000000000        0x0 c:/devkitpro/devkitarm/bin/../lib/gcc/arm-none-eabi/10.2.0/armv6k/fpu\libgcc.a(_udivsi3.o)
 .text          0x0000000000000000        0x0 c:/devkitpro/devkitarm/bin/../lib/gcc/arm-none-eabi/10.2.0/../../../../arm-none-eabi/lib/armv6k/fpu\libg.a(lib_a-ctype_.o)
 .data          0x0000000000000000        0x0 c:/devkitpro/devkitarm/bin/../lib/gcc/arm-none-eabi/10.2.0/../../../../arm-none-eabi/lib/armv6k/fpu\libg.a(lib_a-ctype_.o)
 .bss           0x0000000000000000        0x0 c:/devkitpro/devkitarm/bin/../lib/gcc/arm-none-eabi/10.2.0/../../../../arm-none-eabi/lib/armv6k/fpu\libg.a(lib_a-ctype_.o)
 .text.__set_ctype
                0x0000000000000000       0x10 c:/devkitpro/devkitarm/bin/../lib/gcc/arm-none-eabi/10.2.0/../../../../arm-none-eabi/lib/armv6k/fpu\libg.a(lib_a-ctype_.o)
 .comment       0x0000000000000000       0x24 c:/devkitpro/devkitarm/bin/../lib/gcc/arm-none-eabi/10.2.0/../../../../arm-none-eabi/lib/armv6k/fpu\libg.a(lib_a-ctype_.o)
 .text          0x0000000000000000        0x0 c:/devkitpro/devkitarm/bin/../lib/gcc/arm-none-eabi/10.2.0/../../../../arm-none-eabi/lib/armv6k/fpu\libg.a(lib_a-strchr.o)
 .data          0x0000000000000000        0x0 c:/devkitpro/devkitarm/bin/../lib/gcc/arm-none-eabi/10.2.0/../../../../arm-none-eabi/lib/armv6k/fpu\libg.a(lib_a-strchr.o)
 .bss           0x0000000000000000        0x0 c:/devkitpro/devkitarm/bin/../lib/gcc/arm-none-eabi/10.2.0/../../../../arm-none-eabi/lib/armv6k/fpu\libg.a(lib_a-strchr.o)
 .comment       0x0000000000000000       0x24 c:/devkitpro/devkitarm/bin/../lib/gcc/arm-none-eabi/10.2.0/../../../../arm-none-eabi/lib/armv6k/fpu\libg.a(lib_a-strchr.o)
 .text          0x0000000000000000        0x0 c:/devkitpro/devkitarm/bin/../lib/gcc/arm-none-eabi/10.2.0/../../../../arm-none-eabi/lib/armv6k/fpu\libg.a(lib_a-strrchr.o)
 .data          0x0000000000000000        0x0 c:/devkitpro/devkitarm/bin/../lib/gcc/arm-none-eabi/10.2.0/../../../../arm-none-eabi/lib/armv6k/fpu\libg.a(lib_a-strrchr.o)
 .bss           0x0000000000000000        0x0 c:/devkitpro/devkitarm/bin/../lib/gcc/arm-none-eabi/10.2.0/../../../../arm-none-eabi/lib/armv6k/fpu\libg.a(lib_a-strrchr.o)
 .comment       0x0000000000000000       0x24 c:/devkitpro/devkitarm/bin/../lib/gcc/arm-none-eabi/10.2.0/../../../../arm-none-eabi/lib/armv6k/fpu\libg.a(lib_a-strrchr.o)
 .text          0x0000000000000000        0x0 c:/devkitpro/devkitarm/bin/../lib/gcc/arm-none-eabi/10.2.0/armv6k/fpu/crtend.o
 .data          0x0000000000000000        0x0 c:/devkitpro/devkitarm/bin/../lib/gcc/arm-none-eabi/10.2.0/armv6k/fpu/crtend.o
 .bss           0x0000000000000000        0x0 c:/devkitpro/devkitarm/bin/../lib/gcc/arm-none-eabi/10.2.0/armv6k/fpu/crtend.o
 .eh_frame      0x0000000000000000        0x4 c:/devkitpro/devkitarm/bin/../lib/gcc/arm-none-eabi/10.2.0/armv6k/fpu/crtend.o
 .comment       0x0000000000000000       0x24 c:/devkitpro/devkitarm/bin/../lib/gcc/arm-none-eabi/10.2.0/armv6k/fpu/crtend.o
 .ARM.attributes
                0x0000000000000000       0x2e c:/devkitpro/devkitarm/bin/../lib/gcc/arm-none-eabi/10.2.0/armv6k/fpu/crtend.o
 .text          0x0000000000000000        0x0 c:/devkitpro/devkitarm/bin/../lib/gcc/arm-none-eabi/10.2.0/armv6k/fpu/crtn.o
 .data          0x0000000000000000        0x0 c:/devkitpro/devkitarm/bin/../lib/gcc/arm-none-eabi/10.2.0/armv6k/fpu/crtn.o
 .bss           0x0000000000000000        0x0 c:/devkitpro/devkitarm/bin/../lib/gcc/arm-none-eabi/10.2.0/armv6k/fpu/crtn.o

Memory Configuration

Name             Origin             Length             Attributes
*default*        0x0000000000000000 0xffffffffffffffff

Linker script and memory map

                0x0000000000100000                PROVIDE (__start__ = 0x100000)
                0x0000000000100000                . = __start__

.text           0x0000000000100000     0xeee4
 *(.crt0)
 .crt0          0x0000000000100000       0x94 c:/devkitpro/devkitarm/bin/../lib/gcc/arm-none-eabi/10.2.0/../../../../arm-none-eabi/lib/armv6k/fpu/3dsx_crt0.o
                0x0000000000100000                _start
                0x0000000000100008                __service_ptr
                0x000000000010000c                __apt_appid
                0x0000000000100010                __heap_size
                0x0000000000100014                __linear_heap_size
                0x0000000000100018                __system_arglist
                0x000000000010001c                __system_runflags
 *(.init)
 .init          0x0000000000100094        0xc c:/devkitpro/devkitarm/bin/../lib/gcc/arm-none-eabi/10.2.0/armv6k/fpu/crti.o
                0x0000000000100094                _init
 .init          0x00000000001000a0        0xc c:/devkitpro/devkitarm/bin/../lib/gcc/arm-none-eabi/10.2.0/armv6k/fpu/crtn.o
                0x00000000001000ac                . = ALIGN (0x4)
 *(.text)
 .text          0x00000000001000ac       0xd4 c:/devkitpro/devkitarm/bin/../lib/gcc/arm-none-eabi/10.2.0/armv6k/fpu\libgcc.a(_aeabi_ldivmod.o)
                0x00000000001000ac                __aeabi_ldivmod
 .text          0x0000000000100180        0x4 c:/devkitpro/devkitarm/bin/../lib/gcc/arm-none-eabi/10.2.0/armv6k/fpu\libgcc.a(_dvmd_tls.o)
                0x0000000000100180                __aeabi_idiv0
                0x0000000000100180                __aeabi_ldiv0
 *fill*         0x0000000000100184       0x1c 
 .text          0x00000000001001a0      0x390 c:/devkitpro/devkitarm/bin/../lib/gcc/arm-none-eabi/10.2.0/../../../../arm-none-eabi/lib/armv6k/fpu\libg.a(lib_a-strcmp.o)
                0x00000000001001a8                strcmp
 .text          0x0000000000100530      0x20c c:/devkitpro/devkitarm/bin/../lib/gcc/arm-none-eabi/10.2.0/armv6k/fpu\libgcc.a(_udivsi3.o)
                0x0000000000100530                __aeabi_uidiv
                0x0000000000100530                __udivsi3
                0x000000000010071c                __aeabi_uidivmod
 *(.text.*)
 .text.__do_global_dtors_aux
                0x000000000010073c       0x40 c:/devkitpro/devkitarm/bin/../lib/gcc/arm-none-eabi/10.2.0/armv6k/fpu/crtbegin.o
 .text.frame_dummy
                0x000000000010077c       0x2c c:/devkitpro/devkitarm/bin/../lib/gcc/arm-none-eabi/10.2.0/armv6k/fpu/crtbegin.o
 .text.startup.main
                0x00000000001007a8      0x29c main.o
                0x00000000001007a8                main
 .text.C3Di_LightEnvUpdate
                0x0000000000100a44        0x4 C:/devkitPro/libctru/lib\libcitro3d.a(base.o)
                0x0000000000100a44                C3Di_LightEnvUpdate
 .text.C3Di_LightEnvDirty
                0x0000000000100a48        0x4 C:/devkitPro/libctru/lib\libcitro3d.a(base.o)
                0x0000000000100a48                C3Di_LightEnvDirty
 .text.C3Di_ProcTexUpdate
                0x0000000000100a4c        0x4 C:/devkitPro/libctru/lib\libcitro3d.a(base.o)
                0x0000000000100a4c                C3Di_ProcTexUpdate
 .text.C3Di_ProcTexDirty
                0x0000000000100a50        0x4 C:/devkitPro/libctru/lib\libcitro3d.a(base.o)
                0x0000000000100a50                C3Di_ProcTexDirty
 .text.C3Di_AptEventHook
                0x0000000000100a54       0xb4 C:/devkitPro/libctru/lib\libcitro3d.a(base.o)
 .text.C3Di_GasUpdate
                0x0000000000100b08        0x4 C:/devkitPro/libctru/lib\libcitro3d.a(base.o)
                0x0000000000100b08                C3Di_GasUpdate
 .text.C3D_Init
                0x0000000000100b0c      0x1e0 C:/devkitPro/libctru/lib\libcitro3d.a(base.o)
                0x0000000000100b0c                C3D_Init
 .text.C3D_SetViewport
                0x0000000000100cec       0x98 C:/devkitPro/libctru/lib\libcitro3d.a(base.o)
                0x0000000000100cec                C3D_SetViewport
 .text.C3Di_UpdateContext
                0x0000000000100d84      0x4ec C:/devkitPro/libctru/lib\libcitro3d.a(base.o)
                0x0000000000100d84                C3Di_UpdateContext
 .text.C3Di_SplitFrame
                0x0000000000101270       0xe0 C:/devkitPro/libctru/lib\libcitro3d.a(base.o)
                0x0000000000101270                C3Di_SplitFrame
 .text.C3D_Fini
                0x0000000000101350       0x44 C:/devkitPro/libctru/lib\libcitro3d.a(base.o)
                0x0000000000101350                C3D_Fini
 .text.C3D_BindProgram
                0x0000000000101394      0x108 C:/devkitPro/libctru/lib\libcitro3d.a(base.o)
                0x0000000000101394                C3D_BindProgram
 .text.C3D_FixedAttribGetWritePtr
                0x000000000010149c       0x60 C:/devkitPro/libctru/lib\libcitro3d.a(base.o)
                0x000000000010149c                C3D_FixedAttribGetWritePtr
 .text.onVBlank0
                0x00000000001014fc       0x4c C:/devkitPro/libctru/lib\libcitro3d.a(renderqueue.o)
 .text.onVBlank1
                0x0000000000101548       0x4c C:/devkitPro/libctru/lib\libcitro3d.a(renderqueue.o)
 .text.C3Di_RenderTargetDestroy
                0x0000000000101594       0x80 C:/devkitPro/libctru/lib\libcitro3d.a(renderqueue.o)
 .text.onQueueFinish
                0x0000000000101614       0xf4 C:/devkitPro/libctru/lib\libcitro3d.a(renderqueue.o)
 .text.C3Di_RenderQueueEnableVBlank
                0x0000000000101708       0x38 C:/devkitPro/libctru/lib\libcitro3d.a(renderqueue.o)
                0x0000000000101708                C3Di_RenderQueueEnableVBlank
 .text.C3Di_RenderQueueDisableVBlank
                0x0000000000101740       0x30 C:/devkitPro/libctru/lib\libcitro3d.a(renderqueue.o)
                0x0000000000101740                C3Di_RenderQueueDisableVBlank
 .text.C3Di_RenderQueueInit
                0x0000000000101770       0x60 C:/devkitPro/libctru/lib\libcitro3d.a(renderqueue.o)
                0x0000000000101770                C3Di_RenderQueueInit
 .text.C3Di_RenderQueueExit
                0x00000000001017d0       0xb0 C:/devkitPro/libctru/lib\libcitro3d.a(renderqueue.o)
                0x00000000001017d0                C3Di_RenderQueueExit
 .text.C3Di_RenderQueueWaitDone
                0x0000000000101880       0x34 C:/devkitPro/libctru/lib\libcitro3d.a(renderqueue.o)
                0x0000000000101880                C3Di_RenderQueueWaitDone
 .text.C3D_FrameBegin
                0x00000000001018b4       0xe4 C:/devkitPro/libctru/lib\libcitro3d.a(renderqueue.o)
                0x00000000001018b4                C3D_FrameBegin
 .text.C3D_FrameDrawOn
                0x0000000000101998       0x48 C:/devkitPro/libctru/lib\libcitro3d.a(renderqueue.o)
                0x0000000000101998                C3D_FrameDrawOn
 .text.C3D_FrameEnd
                0x00000000001019e0      0x1d8 C:/devkitPro/libctru/lib\libcitro3d.a(renderqueue.o)
                0x00000000001019e0                C3D_FrameEnd
 .text.C3D_RenderTargetCreate
                0x0000000000101bb8      0x128 C:/devkitPro/libctru/lib\libcitro3d.a(renderqueue.o)
                0x0000000000101bb8                C3D_RenderTargetCreate
 .text.C3D_RenderTargetSetOutput
                0x0000000000101ce0       0xa8 C:/devkitPro/libctru/lib\libcitro3d.a(renderqueue.o)
                0x0000000000101ce0                C3D_RenderTargetSetOutput
 .text.C3Di_SetTex
                0x0000000000101d88      0x16c C:/devkitPro/libctru/lib\libcitro3d.a(texture.o)
                0x0000000000101d88                C3Di_SetTex
 .text.C3D_CalcColorBufSize
                0x0000000000101ef4       0x1c C:/devkitPro/libctru/lib\libcitro3d.a(framebuffer.o)
                0x0000000000101ef4                C3D_CalcColorBufSize
 .text.C3D_CalcDepthBufSize
                0x0000000000101f10       0x1c C:/devkitPro/libctru/lib\libcitro3d.a(framebuffer.o)
                0x0000000000101f10                C3D_CalcDepthBufSize
 .text.C3D_SetFrameBuf
                0x0000000000101f2c       0x44 C:/devkitPro/libctru/lib\libcitro3d.a(framebuffer.o)
                0x0000000000101f2c                C3D_SetFrameBuf
 .text.C3Di_FrameBufBind
                0x0000000000101f70      0x16c C:/devkitPro/libctru/lib\libcitro3d.a(framebuffer.o)
                0x0000000000101f70                C3Di_FrameBufBind
 .text.C3D_FrameBufClear
                0x00000000001020dc       0xcc C:/devkitPro/libctru/lib\libcitro3d.a(framebuffer.o)
                0x00000000001020dc                C3D_FrameBufClear
 .text.C3D_FrameBufTransfer
                0x00000000001021a8       0x44 C:/devkitPro/libctru/lib\libcitro3d.a(framebuffer.o)
                0x00000000001021a8                C3D_FrameBufTransfer
 .text.C3D_GetTexEnv
                0x00000000001021ec       0x34 C:/devkitPro/libctru/lib\libcitro3d.a(texenv.o)
                0x00000000001021ec                C3D_GetTexEnv
 .text.C3Di_TexEnvBind
                0x0000000000102220       0x24 C:/devkitPro/libctru/lib\libcitro3d.a(texenv.o)
                0x0000000000102220                C3Di_TexEnvBind
 .text.BufInfo_Init
                0x0000000000102244       0x24 C:/devkitPro/libctru/lib\libcitro3d.a(buffers.o)
                0x0000000000102244                BufInfo_Init
 .text.BufInfo_Add
                0x0000000000102268       0x80 C:/devkitPro/libctru/lib\libcitro3d.a(buffers.o)
                0x0000000000102268                BufInfo_Add
 .text.C3D_GetBufInfo
                0x00000000001022e8       0x20 C:/devkitPro/libctru/lib\libcitro3d.a(buffers.o)
                0x00000000001022e8                C3D_GetBufInfo
 .text.C3Di_BufInfoBind
                0x0000000000102308       0x48 C:/devkitPro/libctru/lib\libcitro3d.a(buffers.o)
                0x0000000000102308                C3Di_BufInfoBind
 .text.C3D_DrawArrays
                0x0000000000102350      0x148 C:/devkitPro/libctru/lib\libcitro3d.a(drawArrays.o)
                0x0000000000102350                C3D_DrawArrays
 .text.C3D_DepthMap
                0x0000000000102498       0x40 C:/devkitPro/libctru/lib\libcitro3d.a(effect.o)
                0x0000000000102498                C3D_DepthMap
 .text.C3D_CullFace
                0x00000000001024d8       0x1c C:/devkitPro/libctru/lib\libcitro3d.a(effect.o)
                0x00000000001024d8                C3D_CullFace
 .text.C3D_StencilTest
                0x00000000001024f4       0x40 C:/devkitPro/libctru/lib\libcitro3d.a(effect.o)
                0x00000000001024f4                C3D_StencilTest
 .text.C3D_StencilOp
                0x0000000000102534       0x24 C:/devkitPro/libctru/lib\libcitro3d.a(effect.o)
                0x0000000000102534                C3D_StencilOp
 .text.C3D_BlendingColor
                0x0000000000102558       0x1c C:/devkitPro/libctru/lib\libcitro3d.a(effect.o)
                0x0000000000102558                C3D_BlendingColor
 .text.C3D_EarlyDepthTest
                0x0000000000102574       0x24 C:/devkitPro/libctru/lib\libcitro3d.a(effect.o)
                0x0000000000102574                C3D_EarlyDepthTest
 .text.C3D_DepthTest
                0x0000000000102598       0x2c C:/devkitPro/libctru/lib\libcitro3d.a(effect.o)
                0x0000000000102598                C3D_DepthTest
 .text.C3D_AlphaTest
                0x00000000001025c4       0x2c C:/devkitPro/libctru/lib\libcitro3d.a(effect.o)
                0x00000000001025c4                C3D_AlphaTest
 .text.C3D_AlphaBlend
                0x00000000001025f0       0x50 C:/devkitPro/libctru/lib\libcitro3d.a(effect.o)
                0x00000000001025f0                C3D_AlphaBlend
 .text.C3D_FragOpMode
                0x0000000000102640       0x30 C:/devkitPro/libctru/lib\libcitro3d.a(effect.o)
                0x0000000000102640                C3D_FragOpMode
 .text.C3D_FragOpShadow
                0x0000000000102670       0x44 C:/devkitPro/libctru/lib\libcitro3d.a(effect.o)
                0x0000000000102670                C3D_FragOpShadow
 .text.C3Di_EffectBind
                0x00000000001026b4      0x1ac C:/devkitPro/libctru/lib\libcitro3d.a(effect.o)
                0x00000000001026b4                C3Di_EffectBind
 .text.AttrInfo_Init
                0x0000000000102860       0x28 C:/devkitPro/libctru/lib\libcitro3d.a(attribs.o)
                0x0000000000102860                AttrInfo_Init
 .text.AttrInfo_AddLoader
                0x0000000000102888       0x98 C:/devkitPro/libctru/lib\libcitro3d.a(attribs.o)
                0x0000000000102888                AttrInfo_AddLoader
 .text.AttrInfo_AddFixed
                0x0000000000102920       0x60 C:/devkitPro/libctru/lib\libcitro3d.a(attribs.o)
                0x0000000000102920                AttrInfo_AddFixed
 .text.C3D_GetAttrInfo
                0x0000000000102980       0x20 C:/devkitPro/libctru/lib\libcitro3d.a(attribs.o)
                0x0000000000102980                C3D_GetAttrInfo
 .text.C3Di_AttrInfoBind
                0x00000000001029a0       0x80 C:/devkitPro/libctru/lib\libcitro3d.a(attribs.o)
                0x00000000001029a0                C3Di_AttrInfoBind
 .text.C3D_ImmSendAttrib
                0x0000000000102a20       0xa8 C:/devkitPro/libctru/lib\libcitro3d.a(immediate.o)
                0x0000000000102a20                C3D_ImmSendAttrib
 .text.C3D_UpdateUniforms
                0x0000000000102ac8      0x29c C:/devkitPro/libctru/lib\libcitro3d.a(uniforms.o)
                0x0000000000102ac8                C3D_UpdateUniforms
 .text.C3Di_DirtyUniforms
                0x0000000000102d64       0xc0 C:/devkitPro/libctru/lib\libcitro3d.a(uniforms.o)
                0x0000000000102d64                C3Di_DirtyUniforms
 .text.C3Di_LoadShaderUniforms
                0x0000000000102e24       0xd8 C:/devkitPro/libctru/lib\libcitro3d.a(uniforms.o)
                0x0000000000102e24                C3Di_LoadShaderUniforms
 .text.C3Di_ClearShaderUniforms
                0x0000000000102efc       0x28 C:/devkitPro/libctru/lib\libcitro3d.a(uniforms.o)
                0x0000000000102efc                C3Di_ClearShaderUniforms
 .text.Mtx_OrthoTilt
                0x0000000000102f24       0xcc C:/devkitPro/libctru/lib\libcitro3d.a(mtx_orthotilt.o)
                0x0000000000102f24                Mtx_OrthoTilt
 .text._ZL21addrMapNodeComparatorPK11rbtree_nodeS1_
                0x0000000000102ff0       0x24 C:/devkitPro/libctru/lib\libctru.a(vram.o)
 .text._ZL21addrMapNodeDestructorP11rbtree_node
                0x0000000000103014        0x4 C:/devkitPro/libctru/lib\libctru.a(vram.o)
 .text.vramMemAlign
                0x0000000000103018      0x114 C:/devkitPro/libctru/lib\libctru.a(vram.o)
                0x0000000000103018                vramMemAlign
 .text.vramAlloc
                0x000000000010312c        0x8 C:/devkitPro/libctru/lib\libctru.a(vram.o)
                0x000000000010312c                vramAlloc
 .text.vramFree
                0x0000000000103134       0x5c C:/devkitPro/libctru/lib\libctru.a(vram.o)
                0x0000000000103134                vramFree
 .text._ZL21addrMapNodeComparatorPK11rbtree_nodeS1_
                0x0000000000103190       0x24 C:/devkitPro/libctru/lib\libctru.a(linear.o)
 .text._ZL21addrMapNodeDestructorP11rbtree_node
                0x00000000001031b4        0x4 C:/devkitPro/libctru/lib\libctru.a(linear.o)
 .text.linearMemAlign
                0x00000000001031b8      0x120 C:/devkitPro/libctru/lib\libctru.a(linear.o)
                0x00000000001031b8                linearMemAlign
 .text.linearAlloc
                0x00000000001032d8        0x8 C:/devkitPro/libctru/lib\libctru.a(linear.o)
                0x00000000001032d8                linearAlloc
 .text.linearFree
                0x00000000001032e0       0x5c C:/devkitPro/libctru/lib\libctru.a(linear.o)
                0x00000000001032e0                linearFree
 .text._ZN7MemPool13CoalesceRightEP8MemBlock
                0x000000000010333c       0x84 C:/devkitPro/libctru/lib\libctru.a(mem_pool.o)
                0x000000000010333c                MemPool::CoalesceRight(MemBlock*)
 .text._ZN7MemPool8AllocateER8MemChunkmi
                0x00000000001033c0      0x170 C:/devkitPro/libctru/lib\libctru.a(mem_pool.o)
                0x00000000001033c0                MemPool::Allocate(MemChunk&, unsigned long, int)
 .text._ZN7MemPool10DeallocateERK8MemChunk
                0x0000000000103530       0xfc C:/devkitPro/libctru/lib\libctru.a(mem_pool.o)
                0x0000000000103530                MemPool::Deallocate(MemChunk const&)
 .text.osConvertVirtToPhys
                0x000000000010362c       0x74 C:/devkitPro/libctru/lib\libctru.a(os.o)
                0x000000000010362c                osConvertVirtToPhys
 .text.osGetTimeRef
                0x00000000001036a0       0x54 C:/devkitPro/libctru/lib\libctru.a(os.o)
                0x00000000001036a0                osGetTimeRef
 .text.osGetTime
                0x00000000001036f4       0xe4 C:/devkitPro/libctru/lib\libctru.a(os.o)
                0x00000000001036f4                osGetTime
 .text.__libctru_gtod
                0x00000000001037d8       0x74 C:/devkitPro/libctru/lib\libctru.a(os.o)
                0x00000000001037d8                __libctru_gtod
 .text.__ctru_speedup_config
                0x000000000010384c       0x34 C:/devkitPro/libctru/lib\libctru.a(os.o)
                0x000000000010384c                __ctru_speedup_config
 .text.gfxPresentFramebuffer
                0x0000000000103880       0xd0 C:/devkitPro/libctru/lib\libctru.a(gfx.o)
 .text.gfxSetScreenFormat
                0x0000000000103950       0xec C:/devkitPro/libctru/lib\libctru.a(gfx.o)
                0x0000000000103950                gfxSetScreenFormat
 .text.gfxInit  0x0000000000103a3c      0x108 C:/devkitPro/libctru/lib\libctru.a(gfx.o)
                0x0000000000103a3c                gfxInit
 .text.gfxInitDefault
                0x0000000000103b44       0x10 C:/devkitPro/libctru/lib\libctru.a(gfx.o)
                0x0000000000103b44                gfxInitDefault
 .text.gfxExit  0x0000000000103b54       0xb4 C:/devkitPro/libctru/lib\libctru.a(gfx.o)
                0x0000000000103b54                gfxExit
 .text.gfxGetFramebuffer
                0x0000000000103c08       0xa0 C:/devkitPro/libctru/lib\libctru.a(gfx.o)
                0x0000000000103c08                gfxGetFramebuffer
 .text.gfxScreenSwapBuffers
                0x0000000000103ca8       0x30 C:/devkitPro/libctru/lib\libctru.a(gfx.o)
                0x0000000000103ca8                gfxScreenSwapBuffers
 .text.shaderInstanceInit
                0x0000000000103cd8      0x1e0 C:/devkitPro/libctru/lib\libctru.a(shaderProgram.o)
                0x0000000000103cd8                shaderInstanceInit
 .text.shaderInstanceGetUniformLocation
                0x0000000000103eb8       0x18 C:/devkitPro/libctru/lib\libctru.a(shaderProgram.o)
                0x0000000000103eb8                shaderInstanceGetUniformLocation
 .text.shaderProgramInit
                0x0000000000103ed0       0x1c C:/devkitPro/libctru/lib\libctru.a(shaderProgram.o)
                0x0000000000103ed0                shaderProgramInit
 .text.shaderProgramFree
                0x0000000000103eec       0x64 C:/devkitPro/libctru/lib\libctru.a(shaderProgram.o)
                0x0000000000103eec                shaderProgramFree
 .text.shaderProgramSetVsh
                0x0000000000103f50       0x80 C:/devkitPro/libctru/lib\libctru.a(shaderProgram.o)
                0x0000000000103f50                shaderProgramSetVsh
 .text.shaderProgramConfigure
                0x0000000000103fd0      0x8c0 C:/devkitPro/libctru/lib\libctru.a(shaderProgram.o)
                0x0000000000103fd0                shaderProgramConfigure
 .text.DVLE_GenerateOutmap.part.0
                0x0000000000104890      0x1f8 C:/devkitPro/libctru/lib\libctru.a(shbin.o)
 .text.DVLB_ParseFile
                0x0000000000104a88      0x1cc C:/devkitPro/libctru/lib\libctru.a(shbin.o)
                0x0000000000104a88                DVLB_ParseFile
 .text.DVLB_Free
                0x0000000000104c54       0x38 C:/devkitPro/libctru/lib\libctru.a(shbin.o)
                0x0000000000104c54                DVLB_Free
 .text.DVLE_GetUniformRegister
                0x0000000000104c8c       0x74 C:/devkitPro/libctru/lib\libctru.a(shbin.o)
                0x0000000000104c8c                DVLE_GetUniformRegister
 .text.GX_BindQueue
                0x0000000000104d00       0x10 C:/devkitPro/libctru/lib\libctru.a(gx.o)
                0x0000000000104d00                GX_BindQueue
 .text.GX_ProcessCommandList
                0x0000000000104d10       0x78 C:/devkitPro/libctru/lib\libctru.a(gx.o)
                0x0000000000104d10                GX_ProcessCommandList
 .text.GX_MemoryFill
                0x0000000000104d88       0x74 C:/devkitPro/libctru/lib\libctru.a(gx.o)
                0x0000000000104d88                GX_MemoryFill
 .text.GX_DisplayTransfer
                0x0000000000104dfc       0x70 C:/devkitPro/libctru/lib\libctru.a(gx.o)
                0x0000000000104dfc                GX_DisplayTransfer
 .text.gxCmdQueueDoCommands.part.0
                0x0000000000104e6c       0x68 C:/devkitPro/libctru/lib\libctru.a(gxqueue.o)
 .text.gxCmdQueueInterrupt
                0x0000000000104ed4       0xc8 C:/devkitPro/libctru/lib\libctru.a(gxqueue.o)
                0x0000000000104ed4                gxCmdQueueInterrupt
 .text.gxCmdQueueClear
                0x0000000000104f9c       0x4c C:/devkitPro/libctru/lib\libctru.a(gxqueue.o)
                0x0000000000104f9c                gxCmdQueueClear
 .text.gxCmdQueueAdd
                0x0000000000104fe8       0xf8 C:/devkitPro/libctru/lib\libctru.a(gxqueue.o)
                0x0000000000104fe8                gxCmdQueueAdd
 .text.gxCmdQueueRun
                0x00000000001050e0       0x80 C:/devkitPro/libctru/lib\libctru.a(gxqueue.o)
                0x00000000001050e0                gxCmdQueueRun
 .text.gxCmdQueueStop
                0x0000000000105160       0x60 C:/devkitPro/libctru/lib\libctru.a(gxqueue.o)
                0x0000000000105160                gxCmdQueueStop
 .text.gxCmdQueueWait
                0x00000000001051c0       0x74 C:/devkitPro/libctru/lib\libctru.a(gxqueue.o)
                0x00000000001051c0                gxCmdQueueWait
 .text.GPUCMD_Add
                0x0000000000105234      0x13c C:/devkitPro/libctru/lib\libctru.a(gpu.o)
                0x0000000000105234                GPUCMD_Add
 .text.GPUCMD_Split
                0x0000000000105370       0xac C:/devkitPro/libctru/lib\libctru.a(gpu.o)
                0x0000000000105370                GPUCMD_Split
 .text.f32tof16
                0x000000000010541c       0x40 C:/devkitPro/libctru/lib\libctru.a(gpu.o)
                0x000000000010541c                f32tof16
 .text.f32tof24
                0x000000000010545c       0x40 C:/devkitPro/libctru/lib\libctru.a(gpu.o)
                0x000000000010545c                f32tof24
 .text.f32tof31
                0x000000000010549c       0x44 C:/devkitPro/libctru/lib\libctru.a(gpu.o)
                0x000000000010549c                f32tof31
 .text.gspHardwareInit
                0x00000000001054e0      0xc58 C:/devkitPro/libctru/lib\libctru.a(gspgpu.o)
 .text.gspInit  0x0000000000106138      0x254 C:/devkitPro/libctru/lib\libctru.a(gspgpu.o)
                0x0000000000106138                gspInit
 .text.gspExit  0x000000000010638c       0xf0 C:/devkitPro/libctru/lib\libctru.a(gspgpu.o)
                0x000000000010638c                gspExit
 .text.gspHasGpuRight
                0x000000000010647c       0x10 C:/devkitPro/libctru/lib\libctru.a(gspgpu.o)
                0x000000000010647c                gspHasGpuRight
 .text.gspPresentBuffer
                0x000000000010648c       0x98 C:/devkitPro/libctru/lib\libctru.a(gspgpu.o)
                0x000000000010648c                gspPresentBuffer
 .text.gspSetEventCallback
                0x0000000000106524       0x30 C:/devkitPro/libctru/lib\libctru.a(gspgpu.o)
                0x0000000000106524                gspSetEventCallback
 .text.gspWaitForEvent
                0x0000000000106554       0x50 C:/devkitPro/libctru/lib\libctru.a(gspgpu.o)
                0x0000000000106554                gspWaitForEvent
 .text.gspWaitForAnyEvent
                0x00000000001065a4       0x4c C:/devkitPro/libctru/lib\libctru.a(gspgpu.o)
                0x00000000001065a4                gspWaitForAnyEvent
 .text.gspEventThreadMain
                0x00000000001065f0      0x160 C:/devkitPro/libctru/lib\libctru.a(gspgpu.o)
 .text.gspSubmitGxCommand
                0x0000000000106750      0x130 C:/devkitPro/libctru/lib\libctru.a(gspgpu.o)
                0x0000000000106750                gspSubmitGxCommand
 .text.GSPGPU_FlushDataCache
                0x0000000000106880       0x50 C:/devkitPro/libctru/lib\libctru.a(gspgpu.o)
                0x0000000000106880                GSPGPU_FlushDataCache
 .text.GSPGPU_SetLcdForceBlack
                0x00000000001068d0       0x34 C:/devkitPro/libctru/lib\libctru.a(gspgpu.o)
                0x00000000001068d0                GSPGPU_SetLcdForceBlack
 .text.GSPGPU_AcquireRight
                0x0000000000106904       0x68 C:/devkitPro/libctru/lib\libctru.a(gspgpu.o)
                0x0000000000106904                GSPGPU_AcquireRight
 .text.GSPGPU_ReleaseRight
                0x000000000010696c       0x48 C:/devkitPro/libctru/lib\libctru.a(gspgpu.o)
                0x000000000010696c                GSPGPU_ReleaseRight
 .text.GSPGPU_ImportDisplayCaptureInfo
                0x00000000001069b4       0x7c C:/devkitPro/libctru/lib\libctru.a(gspgpu.o)
                0x00000000001069b4                GSPGPU_ImportDisplayCaptureInfo
 .text.GSPGPU_SaveVramSysArea
                0x0000000000106a30       0x2c C:/devkitPro/libctru/lib\libctru.a(gspgpu.o)
                0x0000000000106a30                GSPGPU_SaveVramSysArea
 .text.GSPGPU_RestoreVramSysArea
                0x0000000000106a5c       0x2c C:/devkitPro/libctru/lib\libctru.a(gspgpu.o)
                0x0000000000106a5c                GSPGPU_RestoreVramSysArea
 .text.aptConvertScreenForCapture
                0x0000000000106a88      0x1b0 C:/devkitPro/libctru/lib\libctru.a(apt.o)
 .text.aptDspSleep
                0x0000000000106c38        0x8 C:/devkitPro/libctru/lib\libctru.a(apt.o)
                0x0000000000106c38                aptDspSleep
 .text.aptDspWakeup
                0x0000000000106c40        0x4 C:/devkitPro/libctru/lib\libctru.a(apt.o)
                0x0000000000106c40                aptDspWakeup
 .text.aptDspCancel
                0x0000000000106c44        0x4 C:/devkitPro/libctru/lib\libctru.a(apt.o)
                0x0000000000106c44                aptDspCancel
 .text.aptSendCommand
                0x0000000000106c48      0x15c C:/devkitPro/libctru/lib\libctru.a(apt.o)
                0x0000000000106c48                aptSendCommand
 .text.aptExitProcess
                0x0000000000106da4       0x38 C:/devkitPro/libctru/lib\libctru.a(apt.o)
 .text.aptExit  0x0000000000106ddc      0x2f0 C:/devkitPro/libctru/lib\libctru.a(apt.o)
                0x0000000000106ddc                aptExit
 .text.aptHandleSleep
                0x00000000001070cc       0xd8 C:/devkitPro/libctru/lib\libctru.a(apt.o)
                0x00000000001070cc                aptHandleSleep
 .text.aptHook  0x00000000001071a4       0x30 C:/devkitPro/libctru/lib\libctru.a(apt.o)
                0x00000000001071a4                aptHook
 .text.aptUnhook
                0x00000000001071d4       0x30 C:/devkitPro/libctru/lib\libctru.a(apt.o)
                0x00000000001071d4                aptUnhook
 .text.APT_SleepIfShellClosed
                0x0000000000107204       0x84 C:/devkitPro/libctru/lib\libctru.a(apt.o)
                0x0000000000107204                APT_SleepIfShellClosed
 .text.aptSetSleepAllowed
                0x0000000000107288       0x84 C:/devkitPro/libctru/lib\libctru.a(apt.o)
                0x0000000000107288                aptSetSleepAllowed
 .text.APT_UnlockTransition
                0x000000000010730c       0x84 C:/devkitPro/libctru/lib\libctru.a(apt.o)
                0x000000000010730c                APT_UnlockTransition
 .text.aptEventHandler
                0x0000000000107390      0x484 C:/devkitPro/libctru/lib\libctru.a(apt.o)
 .text.APT_ReceiveParameter
                0x0000000000107814       0xb0 C:/devkitPro/libctru/lib\libctru.a(apt.o)
                0x0000000000107814                APT_ReceiveParameter
 .text.aptReceiveParameter.constprop.0
                0x00000000001078c4       0xb0 C:/devkitPro/libctru/lib\libctru.a(apt.o)
 *fill*         0x0000000000107974        0x4 
 .text.aptScreenTransfer
                0x0000000000107978      0x2bc C:/devkitPro/libctru/lib\libctru.a(apt.o)
 .text.aptWaitForWakeUp.isra.0
                0x0000000000107c34      0x2d0 C:/devkitPro/libctru/lib\libctru.a(apt.o)
 .text.aptJumpToHomeMenu
                0x0000000000107f04       0xf8 C:/devkitPro/libctru/lib\libctru.a(apt.o)
                0x0000000000107f04                aptJumpToHomeMenu
 .text.aptMainLoop
                0x0000000000107ffc       0x4c C:/devkitPro/libctru/lib\libctru.a(apt.o)
                0x0000000000107ffc                aptMainLoop
 .text.aptInit  0x0000000000108048      0x234 C:/devkitPro/libctru/lib\libctru.a(apt.o)
                0x0000000000108048                aptInit
 .text.APT_CheckNew3DS
                0x000000000010827c       0x7c C:/devkitPro/libctru/lib\libctru.a(apt.o)
                0x000000000010827c                APT_CheckNew3DS
 .text.hidShouldUseIrrst
                0x00000000001082f8       0x24 C:/devkitPro/libctru/lib\libctru.a(hid.o)
                0x00000000001082f8                hidShouldUseIrrst
 .text.hidInit  0x000000000010831c      0x18c C:/devkitPro/libctru/lib\libctru.a(hid.o)
                0x000000000010831c                hidInit
 .text.hidExit  0x00000000001084a8       0xe8 C:/devkitPro/libctru/lib\libctru.a(hid.o)
                0x00000000001084a8                hidExit
 .text.hidScanInput
                0x0000000000108590      0x294 C:/devkitPro/libctru/lib\libctru.a(hid.o)
                0x0000000000108590                hidScanInput
 .text.hidKeysDown
                0x0000000000108824       0x10 C:/devkitPro/libctru/lib\libctru.a(hid.o)
                0x0000000000108824                hidKeysDown
 .text.ptmSysmInit
                0x0000000000108834       0x74 C:/devkitPro/libctru/lib\libctru.a(ptmsysm.o)
                0x0000000000108834                ptmSysmInit
 .text.ptmSysmExit
                0x00000000001088a8       0x3c C:/devkitPro/libctru/lib\libctru.a(ptmsysm.o)
                0x00000000001088a8                ptmSysmExit
 .text.PTMSYSM_ConfigureNew3DSCPU
                0x00000000001088e4       0x34 C:/devkitPro/libctru/lib\libctru.a(ptmsysm.o)
                0x00000000001088e4                PTMSYSM_ConfigureNew3DSCPU
 .text.rbtree_init
                0x0000000000108918       0x10 C:/devkitPro/libctru/lib\libctru.a(rbtree_init.o)
                0x0000000000108918                rbtree_init
 .text.do_insert
                0x0000000000108928      0x1a0 C:/devkitPro/libctru/lib\libctru.a(rbtree_insert.o)
 .text.rbtree_insert
                0x0000000000108ac8        0x8 C:/devkitPro/libctru/lib\libctru.a(rbtree_insert.o)
                0x0000000000108ac8                rbtree_insert
 .text.rbtree_rotate
                0x0000000000108ad0       0x90 C:/devkitPro/libctru/lib\libctru.a(rbtree_rotate.o)
                0x0000000000108ad0                rbtree_rotate
 .text.rbtree_remove
                0x0000000000108b60      0x338 C:/devkitPro/libctru/lib\libctru.a(rbtree_remove.o)
                0x0000000000108b60                rbtree_remove
 .text.rbtree_find
                0x0000000000108e98       0x74 C:/devkitPro/libctru/lib\libctru.a(rbtree_find.o)
                0x0000000000108e98                rbtree_find
 *fill*         0x0000000000108f0c        0x4 
 .text.__system_allocateHeaps
                0x0000000000108f10      0x1e0 C:/devkitPro/libctru/lib\libctru.a(allocateHeaps.o)
                0x0000000000108f10                __system_allocateHeaps
 .text.__libctru_init
                0x00000000001090f0       0x38 C:/devkitPro/libctru/lib\libctru.a(ctru_init.o)
                0x00000000001090f0                __libctru_init
 .text.__system_initArgv
                0x0000000000109128       0xf0 C:/devkitPro/libctru/lib\libctru.a(initArgv.o)
                0x0000000000109128                __system_initArgv
 .text.svcControlMemory
                0x0000000000109218       0x20 C:/devkitPro/libctru/lib\libctru.a(svc.o)
                0x0000000000109218                svcControlMemory
 .text.svcQueryMemory
                0x0000000000109238       0x30 C:/devkitPro/libctru/lib\libctru.a(svc.o)
                0x0000000000109238                svcQueryMemory
 .text.svcExitProcess
                0x0000000000109268        0x8 C:/devkitPro/libctru/lib\libctru.a(svc.o)
                0x0000000000109268                svcExitProcess
 .text.svcCreateThread
                0x0000000000109270       0x20 C:/devkitPro/libctru/lib\libctru.a(svc.o)
                0x0000000000109270                svcCreateThread
 .text.svcExitThread
                0x0000000000109290        0x8 C:/devkitPro/libctru/lib\libctru.a(svc.o)
                0x0000000000109290                svcExitThread
 .text.svcSleepThread
                0x0000000000109298        0x8 C:/devkitPro/libctru/lib\libctru.a(svc.o)
                0x0000000000109298                svcSleepThread
 .text.svcReleaseMutex
                0x00000000001092a0        0x8 C:/devkitPro/libctru/lib\libctru.a(svc.o)
                0x00000000001092a0                svcReleaseMutex
 .text.svcCreateEvent
                0x00000000001092a8       0x14 C:/devkitPro/libctru/lib\libctru.a(svc.o)
                0x00000000001092a8                svcCreateEvent
 .text.svcSignalEvent
                0x00000000001092bc        0x8 C:/devkitPro/libctru/lib\libctru.a(svc.o)
                0x00000000001092bc                svcSignalEvent
 .text.svcClearEvent
                0x00000000001092c4        0x8 C:/devkitPro/libctru/lib\libctru.a(svc.o)
                0x00000000001092c4                svcClearEvent
 .text.svcMapMemoryBlock
                0x00000000001092cc        0x8 C:/devkitPro/libctru/lib\libctru.a(svc.o)
                0x00000000001092cc                svcMapMemoryBlock
 .text.svcUnmapMemoryBlock
                0x00000000001092d4        0x8 C:/devkitPro/libctru/lib\libctru.a(svc.o)
                0x00000000001092d4                svcUnmapMemoryBlock
 .text.svcCreateAddressArbiter
                0x00000000001092dc       0x14 C:/devkitPro/libctru/lib\libctru.a(svc.o)
                0x00000000001092dc                svcCreateAddressArbiter
 .text.svcArbitrateAddressNoTimeout
                0x00000000001092f0        0x8 C:/devkitPro/libctru/lib\libctru.a(svc.o)
                0x00000000001092f0                svcArbitrateAddressNoTimeout
 .text.svcCloseHandle
                0x00000000001092f8        0x8 C:/devkitPro/libctru/lib\libctru.a(svc.o)
                0x00000000001092f8                svcCloseHandle
 .text.svcWaitSynchronization
                0x0000000000109300        0x8 C:/devkitPro/libctru/lib\libctru.a(svc.o)
                0x0000000000109300                svcWaitSynchronization
 .text.svcWaitSynchronizationN
                0x0000000000109308       0x28 C:/devkitPro/libctru/lib\libctru.a(svc.o)
                0x0000000000109308                svcWaitSynchronizationN
 .text.svcDuplicateHandle
                0x0000000000109330       0x14 C:/devkitPro/libctru/lib\libctru.a(svc.o)
                0x0000000000109330                svcDuplicateHandle
 .text.svcGetSystemTick
                0x0000000000109344        0x8 C:/devkitPro/libctru/lib\libctru.a(svc.o)
                0x0000000000109344                svcGetSystemTick
 .text.svcConnectToPort
                0x000000000010934c       0x14 C:/devkitPro/libctru/lib\libctru.a(svc.o)
                0x000000000010934c                svcConnectToPort
 .text.svcSendSyncRequest
                0x0000000000109360        0x8 C:/devkitPro/libctru/lib\libctru.a(svc.o)
                0x0000000000109360                svcSendSyncRequest
 .text.svcGetResourceLimit
                0x0000000000109368       0x14 C:/devkitPro/libctru/lib\libctru.a(svc.o)
                0x0000000000109368                svcGetResourceLimit
 .text.svcGetResourceLimitLimitValues
                0x000000000010937c        0x8 C:/devkitPro/libctru/lib\libctru.a(svc.o)
                0x000000000010937c                svcGetResourceLimitLimitValues
 .text.svcGetResourceLimitCurrentValues
                0x0000000000109384        0x8 C:/devkitPro/libctru/lib\libctru.a(svc.o)
                0x0000000000109384                svcGetResourceLimitCurrentValues
 .text.svcBreak
                0x000000000010938c        0x8 C:/devkitPro/libctru/lib\libctru.a(svc.o)
                0x000000000010938c                svcBreak
 .text.initSystem
                0x0000000000109394       0x50 C:/devkitPro/libctru/lib\libctru.a(stack_adjust.o)
                0x0000000000109394                initSystem
 .text.__ctru_exit
                0x00000000001093e4       0x18 C:/devkitPro/libctru/lib\libctru.a(stack_adjust.o)
                0x00000000001093e4                __ctru_exit
 .text.__sync_init
                0x00000000001093fc        0xc C:/devkitPro/libctru/lib\libctru.a(synchronization.o)
                0x00000000001093fc                __sync_init
 .text.__sync_fini
                0x0000000000109408       0x18 C:/devkitPro/libctru/lib\libctru.a(synchronization.o)
                0x0000000000109408                __sync_fini
 .text.syncArbitrateAddress
                0x0000000000109420       0x2c C:/devkitPro/libctru/lib\libctru.a(synchronization.o)
                0x0000000000109420                syncArbitrateAddress
 .text.LightLock_Init
                0x000000000010944c       0x1c C:/devkitPro/libctru/lib\libctru.a(synchronization.o)
                0x000000000010944c                LightLock_Init
 .text.LightLock_Lock
                0x0000000000109468       0x94 C:/devkitPro/libctru/lib\libctru.a(synchronization.o)
                0x0000000000109468                LightLock_Lock
 .text.LightLock_TryLock
                0x00000000001094fc       0x44 C:/devkitPro/libctru/lib\libctru.a(synchronization.o)
                0x00000000001094fc                LightLock_TryLock
 .text.LightLock_Unlock
                0x0000000000109540       0x40 C:/devkitPro/libctru/lib\libctru.a(synchronization.o)
                0x0000000000109540                LightLock_Unlock
 .text.RecursiveLock_Init
                0x0000000000109580       0x24 C:/devkitPro/libctru/lib\libctru.a(synchronization.o)
                0x0000000000109580                RecursiveLock_Init
 .text.RecursiveLock_Lock
                0x00000000001095a4       0x30 C:/devkitPro/libctru/lib\libctru.a(synchronization.o)
                0x00000000001095a4                RecursiveLock_Lock
 .text.RecursiveLock_TryLock
                0x00000000001095d4       0x78 C:/devkitPro/libctru/lib\libctru.a(synchronization.o)
                0x00000000001095d4                RecursiveLock_TryLock
 .text.RecursiveLock_Unlock
                0x000000000010964c       0x54 C:/devkitPro/libctru/lib\libctru.a(synchronization.o)
                0x000000000010964c                RecursiveLock_Unlock
 .text.LightEvent_Init
                0x00000000001096a0       0x40 C:/devkitPro/libctru/lib\libctru.a(synchronization.o)
                0x00000000001096a0                LightEvent_Init
 .text.LightEvent_Clear
                0x00000000001096e0       0xa4 C:/devkitPro/libctru/lib\libctru.a(synchronization.o)
                0x00000000001096e0                LightEvent_Clear
 .text.LightEvent_Signal
                0x0000000000109784       0xc8 C:/devkitPro/libctru/lib\libctru.a(synchronization.o)
                0x0000000000109784                LightEvent_Signal
 .text.LightEvent_TryWait
                0x000000000010984c       0x58 C:/devkitPro/libctru/lib\libctru.a(synchronization.o)
                0x000000000010984c                LightEvent_TryWait
 .text.LightEvent_Wait
                0x00000000001098a4       0xb0 C:/devkitPro/libctru/lib\libctru.a(synchronization.o)
                0x00000000001098a4                LightEvent_Wait
 .text.srvInit  0x0000000000109954      0x124 C:/devkitPro/libctru/lib\libctru.a(srv.o)
                0x0000000000109954                srvInit
 .text.srvExit  0x0000000000109a78       0x58 C:/devkitPro/libctru/lib\libctru.a(srv.o)
                0x0000000000109a78                srvExit
 .text.srvGetServiceHandleDirect
                0x0000000000109ad0       0x80 C:/devkitPro/libctru/lib\libctru.a(srv.o)
                0x0000000000109ad0                srvGetServiceHandleDirect
 .text.srvGetServiceHandle
                0x0000000000109b50       0x48 C:/devkitPro/libctru/lib\libctru.a(srv.o)
                0x0000000000109b50                srvGetServiceHandle
 .text.srvPublishToSubscriber
                0x0000000000109b98       0x38 C:/devkitPro/libctru/lib\libctru.a(srv.o)
                0x0000000000109b98                srvPublishToSubscriber
 .text.threadCreate
                0x0000000000109bd0      0x188 C:/devkitPro/libctru/lib\libctru.a(thread.o)
                0x0000000000109bd0                threadCreate
 .text.threadFree
                0x0000000000109d58       0x2c C:/devkitPro/libctru/lib\libctru.a(thread.o)
                0x0000000000109d58                threadFree
 .text.threadJoin
                0x0000000000109d84       0x24 C:/devkitPro/libctru/lib\libctru.a(thread.o)
                0x0000000000109d84                threadJoin
 .text.threadGetCurrent
                0x0000000000109da8       0x30 C:/devkitPro/libctru/lib\libctru.a(thread.o)
                0x0000000000109da8                threadGetCurrent
 .text.threadExit
                0x0000000000109dd8       0x40 C:/devkitPro/libctru/lib\libctru.a(thread.o)
                0x0000000000109dd8                threadExit
 .text._thread_begin
                0x0000000000109e18       0x44 C:/devkitPro/libctru/lib\libctru.a(thread.o)
 .text.mappableFindAddressWithin
                0x0000000000109e5c       0x94 C:/devkitPro/libctru/lib\libctru.a(mappable.o)
 .text.mappableInit
                0x0000000000109ef0       0x28 C:/devkitPro/libctru/lib\libctru.a(mappable.o)
                0x0000000000109ef0                mappableInit
 .text.mappableAlloc
                0x0000000000109f18       0x80 C:/devkitPro/libctru/lib\libctru.a(mappable.o)
                0x0000000000109f18                mappableAlloc
 .text.mappableFree
                0x0000000000109f98        0x4 C:/devkitPro/libctru/lib\libctru.a(mappable.o)
                0x0000000000109f98                mappableFree
 .text.irrstInit
                0x0000000000109f9c      0x160 C:/devkitPro/libctru/lib\libctru.a(irrst.o)
                0x0000000000109f9c                irrstInit
 .text.irrstExit
                0x000000000010a0fc       0xcc C:/devkitPro/libctru/lib\libctru.a(irrst.o)
                0x000000000010a0fc                irrstExit
 .text.irrstScanInput
                0x000000000010a1c8       0xb0 C:/devkitPro/libctru/lib\libctru.a(irrst.o)
                0x000000000010a1c8                irrstScanInput
 .text.irrstKeysHeld
                0x000000000010a278       0x24 C:/devkitPro/libctru/lib\libctru.a(irrst.o)
                0x000000000010a278                irrstKeysHeld
 .text.srvPmGetSessionHandle
                0x000000000010a29c        0xc C:/devkitPro/libctru/lib\libctru.a(srvpm.o)
                0x000000000010a29c                srvPmGetSessionHandle
 .text.rbtree_node_next
                0x000000000010a2a8       0x50 C:/devkitPro/libctru/lib\libctru.a(rbtree_iterator.o)
                0x000000000010a2a8                rbtree_node_next
 .text.__appInit
                0x000000000010a2f8       0x30 C:/devkitPro/libctru/lib\libctru.a(appInit.o)
                0x000000000010a2f8                __appInit
 .text.__libctru_nanosleep
                0x000000000010a328       0x30 C:/devkitPro/libctru/lib\libctru.a(syscalls.o)
 .text.__libctru_get_reent
                0x000000000010a358       0x30 C:/devkitPro/libctru/lib\libctru.a(syscalls.o)
 .text.__system_initSyscalls
                0x000000000010a388       0xf8 C:/devkitPro/libctru/lib\libctru.a(syscalls.o)
                0x000000000010a388                __system_initSyscalls
 .text.__appExit
                0x000000000010a480       0x30 C:/devkitPro/libctru/lib\libctru.a(appExit.o)
                0x000000000010a480                __appExit
 .text.__libctru_exit
                0x000000000010a4b0       0x90 C:/devkitPro/libctru/lib\libctru.a(ctru_exit.o)
                0x000000000010a4b0                __libctru_exit
 .text.envGetHandle
                0x000000000010a540       0x84 C:/devkitPro/libctru/lib\libctru.a(env.o)
                0x000000000010a540                envGetHandle
 .text.envDestroyHandles
                0x000000000010a5c4       0x50 C:/devkitPro/libctru/lib\libctru.a(env.o)
                0x000000000010a5c4                envDestroyHandles
 .text.archive_link
                0x000000000010a614       0x14 C:/devkitPro/libctru/lib\libctru.a(archive_dev.o)
 .text.archive_dirreset
                0x000000000010a628       0x14 C:/devkitPro/libctru/lib\libctru.a(archive_dev.o)
 .text.archive_chmod
                0x000000000010a63c       0x14 C:/devkitPro/libctru/lib\libctru.a(archive_dev.o)
 .text.error_cmp
                0x000000000010a650       0x24 C:/devkitPro/libctru/lib\libctru.a(archive_dev.o)
 .text.archive_translate_error
                0x000000000010a674       0x50 C:/devkitPro/libctru/lib\libctru.a(archive_dev.o)
 .text.archive_seek
                0x000000000010a6c4       0xd4 C:/devkitPro/libctru/lib\libctru.a(archive_dev.o)
 .text._archiveInit.part.0
                0x000000000010a798       0x7c C:/devkitPro/libctru/lib\libctru.a(archive_dev.o)
 .text.archiveFindDevice.part.0
                0x000000000010a814       0x8c C:/devkitPro/libctru/lib\libctru.a(archive_dev.o)
 .text.archive_utf16path
                0x000000000010a8a0      0x294 C:/devkitPro/libctru/lib\libctru.a(archive_dev.o)
 .text._archiveUnmountDeviceStruct.part.0
                0x000000000010ab34       0xa0 C:/devkitPro/libctru/lib\libctru.a(archive_dev.o)
 .text.archive_fchmod
                0x000000000010abd4       0x14 C:/devkitPro/libctru/lib\libctru.a(archive_dev.o)
 .text.archive_statvfs
                0x000000000010abe8       0x14 C:/devkitPro/libctru/lib\libctru.a(archive_dev.o)
 .text._archiveMountDevice
                0x000000000010abfc      0x158 C:/devkitPro/libctru/lib\libctru.a(archive_dev.o)
 .text.archive_diropen
                0x000000000010ad54       0xe8 C:/devkitPro/libctru/lib\libctru.a(archive_dev.o)
 .text.archive_fstat
                0x000000000010ae3c       0xa4 C:/devkitPro/libctru/lib\libctru.a(archive_dev.o)
 .text.archive_close
                0x000000000010aee0       0x6c C:/devkitPro/libctru/lib\libctru.a(archive_dev.o)
 .text.archive_fsync
                0x000000000010af4c       0x6c C:/devkitPro/libctru/lib\libctru.a(archive_dev.o)
 .text.archive_dirclose
                0x000000000010afb8       0x70 C:/devkitPro/libctru/lib\libctru.a(archive_dev.o)
 .text.sdmc_statvfs
                0x000000000010b028       0xe8 C:/devkitPro/libctru/lib\libctru.a(archive_dev.o)
 .text.archive_ftruncate
                0x000000000010b110       0x80 C:/devkitPro/libctru/lib\libctru.a(archive_dev.o)
 .text.archive_chdir
                0x000000000010b190       0xfc C:/devkitPro/libctru/lib\libctru.a(archive_dev.o)
 .text.archive_read
                0x000000000010b28c       0xb0 C:/devkitPro/libctru/lib\libctru.a(archive_dev.o)
 .text.archive_unlink
                0x000000000010b33c       0xac C:/devkitPro/libctru/lib\libctru.a(archive_dev.o)
 .text.archive_rmdir
                0x000000000010b3e8       0xc8 C:/devkitPro/libctru/lib\libctru.a(archive_dev.o)
 .text.archive_mkdir
                0x000000000010b4b0       0xec C:/devkitPro/libctru/lib\libctru.a(archive_dev.o)
 .text.archive_stat
                0x000000000010b59c      0x1a8 C:/devkitPro/libctru/lib\libctru.a(archive_dev.o)
 .text.archive_rename
                0x000000000010b744      0x184 C:/devkitPro/libctru/lib\libctru.a(archive_dev.o)
 .text.archive_dirnext
                0x000000000010b8c8      0x168 C:/devkitPro/libctru/lib\libctru.a(archive_dev.o)
 .text.archive_write
                0x000000000010ba30      0x12c C:/devkitPro/libctru/lib\libctru.a(archive_dev.o)
 .text.archive_open
                0x000000000010bb5c      0x1f0 C:/devkitPro/libctru/lib\libctru.a(archive_dev.o)
 .text.archiveMountSdmc
                0x000000000010bd4c      0x1a4 C:/devkitPro/libctru/lib\libctru.a(archive_dev.o)
                0x000000000010bd4c                archiveMountSdmc
 .text.archiveUnmountAll
                0x000000000010bef0       0x54 C:/devkitPro/libctru/lib\libctru.a(archive_dev.o)
                0x000000000010bef0                archiveUnmountAll
 .text.fsInit   0x000000000010bf44       0xc8 C:/devkitPro/libctru/lib\libctru.a(fs.o)
                0x000000000010bf44                fsInit
 .text.fsExit   0x000000000010c00c       0x3c C:/devkitPro/libctru/lib\libctru.a(fs.o)
                0x000000000010c00c                fsExit
 .text.fsExemptFromSession
                0x000000000010c048       0x60 C:/devkitPro/libctru/lib\libctru.a(fs.o)
                0x000000000010c048                fsExemptFromSession
 .text.fsUnexemptFromSession
                0x000000000010c0a8       0x50 C:/devkitPro/libctru/lib\libctru.a(fs.o)
                0x000000000010c0a8                fsUnexemptFromSession
 .text.FSUSER_OpenFile
                0x000000000010c0f8       0xcc C:/devkitPro/libctru/lib\libctru.a(fs.o)
                0x000000000010c0f8                FSUSER_OpenFile
 .text.FSUSER_DeleteFile
                0x000000000010c1c4       0xbc C:/devkitPro/libctru/lib\libctru.a(fs.o)
                0x000000000010c1c4                FSUSER_DeleteFile
 .text.FSUSER_RenameFile
                0x000000000010c280       0xf8 C:/devkitPro/libctru/lib\libctru.a(fs.o)
                0x000000000010c280                FSUSER_RenameFile
 .text.FSUSER_DeleteDirectory
                0x000000000010c378       0xbc C:/devkitPro/libctru/lib\libctru.a(fs.o)
                0x000000000010c378                FSUSER_DeleteDirectory
 .text.FSUSER_CreateFile
                0x000000000010c434       0xd4 C:/devkitPro/libctru/lib\libctru.a(fs.o)
                0x000000000010c434                FSUSER_CreateFile
 .text.FSUSER_CreateDirectory
                0x000000000010c508       0xc4 C:/devkitPro/libctru/lib\libctru.a(fs.o)
                0x000000000010c508                FSUSER_CreateDirectory
 .text.FSUSER_RenameDirectory
                0x000000000010c5cc       0xf8 C:/devkitPro/libctru/lib\libctru.a(fs.o)
                0x000000000010c5cc                FSUSER_RenameDirectory
 .text.FSUSER_OpenDirectory
                0x000000000010c6c4       0xb4 C:/devkitPro/libctru/lib\libctru.a(fs.o)
                0x000000000010c6c4                FSUSER_OpenDirectory
 .text.FSUSER_OpenArchive
                0x000000000010c778       0x94 C:/devkitPro/libctru/lib\libctru.a(fs.o)
                0x000000000010c778                FSUSER_OpenArchive
 .text.FSUSER_CloseArchive
                0x000000000010c80c       0x8c C:/devkitPro/libctru/lib\libctru.a(fs.o)
                0x000000000010c80c                FSUSER_CloseArchive
 .text.FSUSER_GetSdmcArchiveResource
                0x000000000010c898       0x74 C:/devkitPro/libctru/lib\libctru.a(fs.o)
                0x000000000010c898                FSUSER_GetSdmcArchiveResource
 .text.FSUSER_IsSdmcWritable
                0x000000000010c90c       0x64 C:/devkitPro/libctru/lib\libctru.a(fs.o)
                0x000000000010c90c                FSUSER_IsSdmcWritable
 .text.FSFILE_Read
                0x000000000010c970       0x58 C:/devkitPro/libctru/lib\libctru.a(fs.o)
                0x000000000010c970                FSFILE_Read
 .text.FSFILE_Write
                0x000000000010c9c8       0x60 C:/devkitPro/libctru/lib\libctru.a(fs.o)
                0x000000000010c9c8                FSFILE_Write
 .text.FSFILE_GetSize
                0x000000000010ca28       0x38 C:/devkitPro/libctru/lib\libctru.a(fs.o)
                0x000000000010ca28                FSFILE_GetSize
 .text.FSFILE_SetSize
                0x000000000010ca60       0x28 C:/devkitPro/libctru/lib\libctru.a(fs.o)
                0x000000000010ca60                FSFILE_SetSize
 .text.FSFILE_Close
                0x000000000010ca88       0x3c C:/devkitPro/libctru/lib\libctru.a(fs.o)
                0x000000000010ca88                FSFILE_Close
 .text.FSFILE_Flush
                0x000000000010cac4       0x24 C:/devkitPro/libctru/lib\libctru.a(fs.o)
                0x000000000010cac4                FSFILE_Flush
 .text.FSDIR_Read
                0x000000000010cae8       0x50 C:/devkitPro/libctru/lib\libctru.a(fs.o)
                0x000000000010cae8                FSDIR_Read
 .text.FSDIR_Close
                0x000000000010cb38       0x3c C:/devkitPro/libctru/lib\libctru.a(fs.o)
                0x000000000010cb38                FSDIR_Close
 .text.utf16_to_utf8
                0x000000000010cb74       0xe8 C:/devkitPro/libctru/lib\libctru.a(utf16_to_utf8.o)
                0x000000000010cb74                utf16_to_utf8
 .text.decode_utf16
                0x000000000010cc5c       0x64 C:/devkitPro/libctru/lib\libctru.a(decode_utf16.o)
                0x000000000010cc5c                decode_utf16
 .text.decode_utf8
                0x000000000010ccc0      0x13c C:/devkitPro/libctru/lib\libctru.a(decode_utf8.o)
                0x000000000010ccc0                decode_utf8
 .text.utf8_to_utf16
                0x000000000010cdfc       0xc0 C:/devkitPro/libctru/lib\libctru.a(utf8_to_utf16.o)
                0x000000000010cdfc                utf8_to_utf16
 .text.__aeabi_read_tp
                0x000000000010cebc        0xc C:/devkitPro/libctru/lib\libctru.a(readtp.o)
                0x000000000010cebc                __aeabi_read_tp
 .text.encode_utf16
                0x000000000010cec8       0x60 C:/devkitPro/libctru/lib\libctru.a(encode_utf16.o)
                0x000000000010cec8                encode_utf16
 .text.encode_utf8
                0x000000000010cf28       0xfc C:/devkitPro/libctru/lib\libctru.a(encode_utf8.o)
                0x000000000010cf28                encode_utf8
 .text.__udivmoddi4
                0x000000000010d024      0x120 c:/devkitpro/devkitarm/bin/../lib/gcc/arm-none-eabi/10.2.0/armv6k/fpu\libgcc.a(_udivmoddi4.o)
                0x000000000010d024                __udivmoddi4
 .text.bsearch  0x000000000010d144       0x78 c:/devkitpro/devkitarm/bin/../lib/gcc/arm-none-eabi/10.2.0/../../../../arm-none-eabi/lib/armv6k/fpu\libg.a(lib_a-bsearch.o)
                0x000000000010d144                bsearch
 .text.calloc   0x000000000010d1bc       0x28 c:/devkitpro/devkitarm/bin/../lib/gcc/arm-none-eabi/10.2.0/../../../../arm-none-eabi/lib/armv6k/fpu\libg.a(lib_a-calloc.o)
                0x000000000010d1bc                calloc
 .text._calloc_r
                0x000000000010d1e4       0x94 c:/devkitpro/devkitarm/bin/../lib/gcc/arm-none-eabi/10.2.0/../../../../arm-none-eabi/lib/armv6k/fpu\libg.a(lib_a-callocr.o)
                0x000000000010d1e4                _calloc_r
 .text.exit     0x000000000010d278       0x34 c:/devkitpro/devkitarm/bin/../lib/gcc/arm-none-eabi/10.2.0/../../../../arm-none-eabi/lib/armv6k/fpu\libg.a(lib_a-exit.o)
                0x000000000010d278                exit
 .text.__libc_fini_array
                0x000000000010d2ac       0x3c c:/devkitpro/devkitarm/bin/../lib/gcc/arm-none-eabi/10.2.0/../../../../arm-none-eabi/lib/armv6k/fpu\libg.a(lib_a-fini.o)
                0x000000000010d2ac                __libc_fini_array
 .text.__libc_init_array
                0x000000000010d2e8       0x7c c:/devkitpro/devkitarm/bin/../lib/gcc/arm-none-eabi/10.2.0/../../../../arm-none-eabi/lib/armv6k/fpu\libg.a(lib_a-init.o)
                0x000000000010d2e8                __libc_init_array
 .text.memalign
                0x000000000010d364       0x28 c:/devkitpro/devkitarm/bin/../lib/gcc/arm-none-eabi/10.2.0/../../../../arm-none-eabi/lib/armv6k/fpu\libg.a(lib_a-malign.o)
                0x000000000010d364                memalign
 .text._memalign_r
                0x000000000010d38c      0x148 c:/devkitpro/devkitarm/bin/../lib/gcc/arm-none-eabi/10.2.0/../../../../arm-none-eabi/lib/armv6k/fpu\libg.a(lib_a-malignr.o)
                0x000000000010d38c                _memalign_r
 .text.malloc   0x000000000010d4d4       0x20 c:/devkitpro/devkitarm/bin/../lib/gcc/arm-none-eabi/10.2.0/../../../../arm-none-eabi/lib/armv6k/fpu\libg.a(lib_a-malloc.o)
                0x000000000010d4d4                malloc
 .text.free     0x000000000010d4f4       0x20 c:/devkitpro/devkitarm/bin/../lib/gcc/arm-none-eabi/10.2.0/../../../../arm-none-eabi/lib/armv6k/fpu\libg.a(lib_a-malloc.o)
                0x000000000010d4f4                free
 .text._malloc_r
                0x000000000010d514      0x7f0 c:/devkitpro/devkitarm/bin/../lib/gcc/arm-none-eabi/10.2.0/../../../../arm-none-eabi/lib/armv6k/fpu\libg.a(lib_a-mallocr.o)
                0x000000000010d514                _malloc_r
 .text.memcpy   0x000000000010dd04      0x11c c:/devkitpro/devkitarm/bin/../lib/gcc/arm-none-eabi/10.2.0/../../../../arm-none-eabi/lib/armv6k/fpu\libg.a(lib_a-memcpy-stub.o)
                0x000000000010dd04                memcpy
 .text.memset   0x000000000010de20      0x118 c:/devkitpro/devkitarm/bin/../lib/gcc/arm-none-eabi/10.2.0/../../../../arm-none-eabi/lib/armv6k/fpu\libg.a(lib_a-memset.o)
                0x000000000010de20                memset
 .text.__malloc_lock
                0x000000000010df38        0xc c:/devkitpro/devkitarm/bin/../lib/gcc/arm-none-eabi/10.2.0/../../../../arm-none-eabi/lib/armv6k/fpu\libg.a(lib_a-mlock.o)
                0x000000000010df38                __malloc_lock
 .text.__malloc_unlock
                0x000000000010df44        0xc c:/devkitpro/devkitarm/bin/../lib/gcc/arm-none-eabi/10.2.0/../../../../arm-none-eabi/lib/armv6k/fpu\libg.a(lib_a-mlock.o)
                0x000000000010df44                __malloc_unlock
 .text.strlen   0x000000000010df50       0x5c c:/devkitpro/devkitarm/bin/../lib/gcc/arm-none-eabi/10.2.0/../../../../arm-none-eabi/lib/armv6k/fpu\libg.a(lib_a-strlen-stub.o)
                0x000000000010df50                strlen
 .text.strncat  0x000000000010dfac       0xec c:/devkitpro/devkitarm/bin/../lib/gcc/arm-none-eabi/10.2.0/../../../../arm-none-eabi/lib/armv6k/fpu\libg.a(lib_a-strncat.o)
                0x000000000010dfac                strncat
 .text.strncmp  0x000000000010e098       0xdc c:/devkitpro/devkitarm/bin/../lib/gcc/arm-none-eabi/10.2.0/../../../../arm-none-eabi/lib/armv6k/fpu\libg.a(lib_a-strncmp.o)
                0x000000000010e098                strncmp
 .text.strncpy  0x000000000010e174       0xc0 c:/devkitpro/devkitarm/bin/../lib/gcc/arm-none-eabi/10.2.0/../../../../arm-none-eabi/lib/armv6k/fpu\libg.a(lib_a-strncpy.o)
                0x000000000010e174                strncpy
 .text.strnlen  0x000000000010e234       0x48 c:/devkitpro/devkitarm/bin/../lib/gcc/arm-none-eabi/10.2.0/../../../../arm-none-eabi/lib/armv6k/fpu\libg.a(lib_a-strnlen.o)
                0x000000000010e234                strnlen
 .text.__call_exitprocs
                0x000000000010e27c      0x114 c:/devkitpro/devkitarm/bin/../lib/gcc/arm-none-eabi/10.2.0/../../../../arm-none-eabi/lib/armv6k/fpu\libg.a(lib_a-__call_atexit.o)
                0x000000000010e27c                __call_exitprocs
 .text._malloc_trim_r
                0x000000000010e390       0xf8 c:/devkitpro/devkitarm/bin/../lib/gcc/arm-none-eabi/10.2.0/../../../../arm-none-eabi/lib/armv6k/fpu\libg.a(lib_a-freer.o)
                0x000000000010e390                _malloc_trim_r
 .text._free_r  0x000000000010e488      0x2e4 c:/devkitpro/devkitarm/bin/../lib/gcc/arm-none-eabi/10.2.0/../../../../arm-none-eabi/lib/armv6k/fpu\libg.a(lib_a-freer.o)
                0x000000000010e488                _free_r
 .text.null_write
                0x000000000010e76c        0x8 c:/devkitpro/devkitarm/bin/../lib/gcc/arm-none-eabi/10.2.0/../../../../arm-none-eabi/lib/armv6k/fpu\libsysbase.a(iosupport.o)
 .text.setDefaultDevice
                0x000000000010e774       0x18 c:/devkitpro/devkitarm/bin/../lib/gcc/arm-none-eabi/10.2.0/../../../../arm-none-eabi/lib/armv6k/fpu\libsysbase.a(iosupport.o)
                0x000000000010e774                setDefaultDevice
 .text.FindDevice
                0x000000000010e78c       0xc8 c:/devkitpro/devkitarm/bin/../lib/gcc/arm-none-eabi/10.2.0/../../../../arm-none-eabi/lib/armv6k/fpu\libsysbase.a(iosupport.o)
                0x000000000010e78c                FindDevice
 .text.RemoveDevice
                0x000000000010e854       0x28 c:/devkitpro/devkitarm/bin/../lib/gcc/arm-none-eabi/10.2.0/../../../../arm-none-eabi/lib/armv6k/fpu\libsysbase.a(iosupport.o)
                0x000000000010e854                RemoveDevice
 .text.AddDevice
                0x000000000010e87c       0x9c c:/devkitpro/devkitarm/bin/../lib/gcc/arm-none-eabi/10.2.0/../../../../arm-none-eabi/lib/armv6k/fpu\libsysbase.a(iosupport.o)
                0x000000000010e87c                AddDevice
 .text.GetDeviceOpTab
                0x000000000010e918       0x20 c:/devkitpro/devkitarm/bin/../lib/gcc/arm-none-eabi/10.2.0/../../../../arm-none-eabi/lib/armv6k/fpu\libsysbase.a(iosupport.o)
                0x000000000010e918                GetDeviceOpTab
 .text._sbrk_r  0x000000000010e938       0x78 c:/devkitpro/devkitarm/bin/../lib/gcc/arm-none-eabi/10.2.0/../../../../arm-none-eabi/lib/armv6k/fpu\libsysbase.a(sbrk.o)
                0x000000000010e938                _sbrk_r
 .text._exit    0x000000000010e9b0       0x24 c:/devkitpro/devkitarm/bin/../lib/gcc/arm-none-eabi/10.2.0/../../../../arm-none-eabi/lib/armv6k/fpu\libsysbase.a(_exit.o)
                0x000000000010e9b0                _exit
 .text._concatenate_path
                0x000000000010e9d4      0x1b8 c:/devkitpro/devkitarm/bin/../lib/gcc/arm-none-eabi/10.2.0/../../../../arm-none-eabi/lib/armv6k/fpu\libsysbase.a(chdir.o)
                0x000000000010e9d4                _concatenate_path
 .text.chdir    0x000000000010eb8c      0x160 c:/devkitpro/devkitarm/bin/../lib/gcc/arm-none-eabi/10.2.0/../../../../arm-none-eabi/lib/armv6k/fpu\libsysbase.a(chdir.o)
                0x000000000010eb8c                chdir
 .text.__libc_lock_acquire_recursive
                0x000000000010ecec       0x18 c:/devkitpro/devkitarm/bin/../lib/gcc/arm-none-eabi/10.2.0/../../../../arm-none-eabi/lib/armv6k/fpu\libsysbase.a(syscall_support.o)
                0x000000000010ecec                __libc_lock_acquire_recursive
 .text.__libc_lock_release_recursive
                0x000000000010ed04       0x18 c:/devkitpro/devkitarm/bin/../lib/gcc/arm-none-eabi/10.2.0/../../../../arm-none-eabi/lib/armv6k/fpu\libsysbase.a(syscall_support.o)
                0x000000000010ed04                __libc_lock_release_recursive
 .text.__getreent
                0x000000000010ed1c       0x28 c:/devkitpro/devkitarm/bin/../lib/gcc/arm-none-eabi/10.2.0/../../../../arm-none-eabi/lib/armv6k/fpu\libsysbase.a(getreent.o)
                0x000000000010ed1c                __getreent
 .text.strchr   0x000000000010ed44      0x144 c:/devkitpro/devkitarm/bin/../lib/gcc/arm-none-eabi/10.2.0/../../../../arm-none-eabi/lib/armv6k/fpu\libg.a(lib_a-strchr.o)
                0x000000000010ed44                strchr
 .text.strrchr  0x000000000010ee88       0x44 c:/devkitpro/devkitarm/bin/../lib/gcc/arm-none-eabi/10.2.0/../../../../arm-none-eabi/lib/armv6k/fpu\libg.a(lib_a-strrchr.o)
                0x000000000010ee88                strrchr
 *(.glue_7)
 .glue_7        0x000000000010eecc        0x0 linker stubs
 *(.glue_7t)
 .glue_7t       0x000000000010eecc        0x0 linker stubs
 *(.stub)
 *(.gnu.warning)
 *(.gnu.linkonce.t*)
                0x000000000010eecc                . = ALIGN (0x4)
 *(.fini)
 .fini          0x000000000010eecc        0xc c:/devkitpro/devkitarm/bin/../lib/gcc/arm-none-eabi/10.2.0/armv6k/fpu/crti.o
                0x000000000010eecc                _fini
 .fini          0x000000000010eed8        0xc c:/devkitpro/devkitarm/bin/../lib/gcc/arm-none-eabi/10.2.0/armv6k/fpu/crtn.o
                0x000000000010eee4                . = ALIGN (0x4)

.vfp11_veneer   0x000000000010eee4        0x0
 .vfp11_veneer  0x000000000010eee4        0x0 linker stubs

.v4_bx          0x000000000010eee4        0x0
 .v4_bx         0x000000000010eee4        0x0 linker stubs

.iplt           0x000000000010eee4        0x0
 .iplt          0x000000000010eee4        0x0 c:/devkitpro/devkitarm/bin/../lib/gcc/arm-none-eabi/10.2.0/../../../../arm-none-eabi/lib/armv6k/fpu/3dsx_crt0.o
                0x000000000010f000                . = ALIGN (0x1000)

.rodata         0x000000000010f000      0x414
 *(.rodata)
 .rodata        0x000000000010f000       0x24 main.o
 .rodata        0x000000000010f024        0x3 C:/devkitPro/libctru/lib\libctru.a(apt.o)
 *fill*         0x000000000010f027        0x1 
 .rodata        0x000000000010f028        0xc C:/devkitPro/libctru/lib\libctru.a(archive_dev.o)
 *(.roda)
 *(.rodata.*)
 .rodata.vshader_shbin
                0x000000000010f034      0x11c vshader.shbin.o
                0x000000000010f034                vshader_shbin
                0x000000000010f14c                vshader_shbin_size
                0x000000000010f14c                vshader_shbin_end
 .rodata.str1.4
                0x000000000010f150        0xb main.o
 *fill*         0x000000000010f15b        0x1 
 .rodata.colorFmtSizes
                0x000000000010f15c        0x5 C:/devkitPro/libctru/lib\libcitro3d.a(framebuffer.o)
 *fill*         0x000000000010f161        0x3 
 .rodata.depthFmtSizes
                0x000000000010f164        0x4 C:/devkitPro/libctru/lib\libcitro3d.a(framebuffer.o)
 .rodata.gspInit.str1.4
                0x000000000010f168        0x9 C:/devkitPro/libctru/lib\libctru.a(gspgpu.o)
 *fill*         0x000000000010f171        0x3 
 .rodata.aptSendCommand.str1.4
                0x000000000010f174       0x16 C:/devkitPro/libctru/lib\libctru.a(apt.o)
 *fill*         0x000000000010f18a        0x2 
 .rodata.morton_x.3
                0x000000000010f18c        0x8 C:/devkitPro/libctru/lib\libctru.a(apt.o)
 .rodata.morton_y.2
                0x000000000010f194        0x8 C:/devkitPro/libctru/lib\libctru.a(apt.o)
 .rodata.s_sleepWakeEvents.4
                0x000000000010f19c        0x8 C:/devkitPro/libctru/lib\libctru.a(apt.o)
 .rodata.hidInit.str1.4
                0x000000000010f1a4       0x15 C:/devkitPro/libctru/lib\libctru.a(hid.o)
 *fill*         0x000000000010f1b9        0x3 
 .rodata.ptmSysmInit.str1.4
                0x000000000010f1bc        0x9 C:/devkitPro/libctru/lib\libctru.a(ptmsysm.o)
 *fill*         0x000000000010f1c5        0x3 
 .rodata.srvInit.str1.4
                0x000000000010f1c8        0x5 C:/devkitPro/libctru/lib\libctru.a(srv.o)
 *fill*         0x000000000010f1cd        0x3 
 .rodata.irrstInit.str1.4
                0x000000000010f1d0        0x7 C:/devkitPro/libctru/lib\libctru.a(irrst.o)
 *fill*         0x000000000010f1d7        0x1 
 .rodata.str1.4
                0x000000000010f1d8        0x8 C:/devkitPro/libctru/lib\libctru.a(archive_dev.o)
                                          0xc (size before relaxing)
 .rodata._archiveUnmountDeviceStruct.part.0.str1.4
                0x000000000010f1e0        0x2 C:/devkitPro/libctru/lib\libctru.a(archive_dev.o)
 *fill*         0x000000000010f1e2        0x2 
 .rodata._archiveMountDevice.str1.4
                0x000000000010f1e4        0x8 C:/devkitPro/libctru/lib\libctru.a(archive_dev.o)
 .rodata.archiveMountSdmc.str1.4
                0x000000000010f1ec        0x5 C:/devkitPro/libctru/lib\libctru.a(archive_dev.o)
 *fill*         0x000000000010f1f1        0x3 
 .rodata.archive_devoptab
                0x000000000010f1f4       0x70 C:/devkitPro/libctru/lib\libctru.a(archive_dev.o)
 .rodata.error_table
                0x000000000010f264       0x30 C:/devkitPro/libctru/lib\libctru.a(archive_dev.o)
 .rodata.fsInit.str1.4
                0x000000000010f294        0x8 C:/devkitPro/libctru/lib\libctru.a(fs.o)
 .rodata._global_impure_ptr
                0x000000000010f29c        0x4 c:/devkitpro/devkitarm/bin/../lib/gcc/arm-none-eabi/10.2.0/../../../../arm-none-eabi/lib/armv6k/fpu\libg.a(lib_a-impure.o)
                0x000000000010f29c                _global_impure_ptr
 .rodata.AddDevice.str1.4
                0x000000000010f2a0        0x8 c:/devkitpro/devkitarm/bin/../lib/gcc/arm-none-eabi/10.2.0/../../../../arm-none-eabi/lib/armv6k/fpu\libsysbase.a(iosupport.o)
 .rodata.dotab_stdnull
                0x000000000010f2a0       0x70 c:/devkitpro/devkitarm/bin/../lib/gcc/arm-none-eabi/10.2.0/../../../../arm-none-eabi/lib/armv6k/fpu\libsysbase.a(iosupport.o)
                0x000000000010f2a0                dotab_stdnull
 .rodata._ctype_
                0x000000000010f310      0x101 c:/devkitpro/devkitarm/bin/../lib/gcc/arm-none-eabi/10.2.0/../../../../arm-none-eabi/lib/armv6k/fpu\libg.a(lib_a-ctype_.o)
                0x000000000010f310                _ctype_
 *all.rodata*(*)
 *(.gnu.linkonce.r*)
                0x000000000010f414                . = ALIGN (0x4)
 *fill*         0x000000000010f411        0x3 

.eh_frame       0x000000000010f414        0x0
 .eh_frame      0x000000000010f414        0x0 c:/devkitpro/devkitarm/bin/../lib/gcc/arm-none-eabi/10.2.0/armv6k/fpu/crtbegin.o

.rel.dyn        0x000000000010f414        0x0
 .rel.iplt      0x000000000010f414        0x0 c:/devkitpro/devkitarm/bin/../lib/gcc/arm-none-eabi/10.2.0/../../../../arm-none-eabi/lib/armv6k/fpu/3dsx_crt0.o
 .rel.got       0x000000000010f414        0x0 c:/devkitpro/devkitarm/bin/../lib/gcc/arm-none-eabi/10.2.0/../../../../arm-none-eabi/lib/armv6k/fpu/3dsx_crt0.o

.ARM.extab
 *(.ARM.extab* .gnu.linkonce.armextab.*)
                0x000000000010f414                __exidx_start = .

ARM.exidx
 *(.ARM.exidx* .gnu.linkonce.armexidx.*)
                0x000000000010f414                __exidx_end = .
                0x0000000000110000                . = ALIGN (0x1000)

.data           0x0000000000110000      0xd40
 *(.data)
 *(.data.*)
 .data.framerate
                0x0000000000110000        0x4 C:/devkitPro/libctru/lib\libcitro3d.a(renderqueue.o)
 .data.framerateCounter
                0x0000000000110004        0x8 C:/devkitPro/libctru/lib\libcitro3d.a(renderqueue.o)
 .data.queueLock
                0x000000000011000c        0x4 C:/devkitPro/libctru/lib\libctru.a(gxqueue.o)
 .data.kCount   0x0000000000110010        0x4 C:/devkitPro/libctru/lib\libctru.a(hid.o)
 .data.kDelay   0x0000000000110014        0x4 C:/devkitPro/libctru/lib\libctru.a(hid.o)
 .data.kInterval
                0x0000000000110018        0x4 C:/devkitPro/libctru/lib\libctru.a(hid.o)
 .data.__stacksize__
                0x000000000011001c        0x4 C:/devkitPro/libctru/lib\libctru.a(stack_adjust.o)
                0x000000000011001c                __stacksize__
 .data._impure_ptr
                0x0000000000110020        0x4 c:/devkitpro/devkitarm/bin/../lib/gcc/arm-none-eabi/10.2.0/../../../../arm-none-eabi/lib/armv6k/fpu\libg.a(lib_a-impure.o)
                0x0000000000110020                _impure_ptr
 *fill*         0x0000000000110024        0x4 
 .data.impure_data
                0x0000000000110028      0x460 c:/devkitpro/devkitarm/bin/../lib/gcc/arm-none-eabi/10.2.0/../../../../arm-none-eabi/lib/armv6k/fpu\libg.a(lib_a-impure.o)
 .data.__malloc_av_
                0x0000000000110488      0x408 c:/devkitpro/devkitarm/bin/../lib/gcc/arm-none-eabi/10.2.0/../../../../arm-none-eabi/lib/armv6k/fpu\libg.a(lib_a-mallocr.o)
                0x0000000000110488                __malloc_av_
 .data.__malloc_sbrk_base
                0x0000000000110890        0x4 c:/devkitpro/devkitarm/bin/../lib/gcc/arm-none-eabi/10.2.0/../../../../arm-none-eabi/lib/armv6k/fpu\libg.a(lib_a-mallocr.o)
                0x0000000000110890                __malloc_sbrk_base
 .data.__malloc_trim_threshold
                0x0000000000110894        0x4 c:/devkitpro/devkitarm/bin/../lib/gcc/arm-none-eabi/10.2.0/../../../../arm-none-eabi/lib/armv6k/fpu\libg.a(lib_a-mallocr.o)
                0x0000000000110894                __malloc_trim_threshold
 .data.__malloc_recursive_mutex
                0x0000000000110898        0xc c:/devkitpro/devkitarm/bin/../lib/gcc/arm-none-eabi/10.2.0/../../../../arm-none-eabi/lib/armv6k/fpu\libg.a(lib_a-mlock.o)
 .data.__atexit_recursive_mutex
                0x00000000001108a4        0xc c:/devkitpro/devkitarm/bin/../lib/gcc/arm-none-eabi/10.2.0/../../../../arm-none-eabi/lib/armv6k/fpu\libg.a(lib_a-__call_atexit.o)
                0x00000000001108a4                __atexit_recursive_mutex
 .data.defaultDevice
                0x00000000001108b0        0x4 c:/devkitpro/devkitarm/bin/../lib/gcc/arm-none-eabi/10.2.0/../../../../arm-none-eabi/lib/armv6k/fpu\libsysbase.a(iosupport.o)
 .data.devoptab_list
                0x00000000001108b4       0x8c c:/devkitpro/devkitarm/bin/../lib/gcc/arm-none-eabi/10.2.0/../../../../arm-none-eabi/lib/armv6k/fpu\libsysbase.a(iosupport.o)
                0x00000000001108b4                devoptab_list
 .data._current_working_directory
                0x0000000000110940      0x400 c:/devkitpro/devkitarm/bin/../lib/gcc/arm-none-eabi/10.2.0/../../../../arm-none-eabi/lib/armv6k/fpu\libsysbase.a(chdir.o)
 *(.gnu.linkonce.d*)
                0x0000000000110d40                . = ALIGN (0x4)

.igot.plt       0x0000000000110d40        0x0
 .igot.plt      0x0000000000110d40        0x0 c:/devkitpro/devkitarm/bin/../lib/gcc/arm-none-eabi/10.2.0/../../../../arm-none-eabi/lib/armv6k/fpu/3dsx_crt0.o

.got            0x0000000000110d40        0x8
 .got           0x0000000000110d40        0x8 c:/devkitpro/devkitarm/bin/../lib/gcc/arm-none-eabi/10.2.0/../../../../arm-none-eabi/lib/armv6k/fpu/3dsx_crt0.o

.got.plt        0x0000000000110d48        0xc
 .got.plt       0x0000000000110d48        0xc c:/devkitpro/devkitarm/bin/../lib/gcc/arm-none-eabi/10.2.0/../../../../arm-none-eabi/lib/armv6k/fpu/3dsx_crt0.o
                0x0000000000110d48                _GLOBAL_OFFSET_TABLE_

.tdata          0x0000000000110d54        0x0
                0x0000000000110d54                __tdata_lma = .
 *(.tdata)
 *(.tdata.*)
 *(.gnu.linkonce.td.*)
                0x0000000000110d54                . = ALIGN (0x4)
                0x0000000000110d54                __tdata_lma_end = .

.tbss           0x0000000000110d54      0xc08
 *(.tbss)
 *(.tbss.*)
 .tbss.__ctru_dev_path_buf
                0x0000000000110d54      0x401 C:/devkitPro/libctru/lib\libctru.a(path_buf.o)
                0x0000000000110d54                __ctru_dev_path_buf
 *fill*         0x0000000000111155        0x3 
 .tbss.__ctru_dev_utf16_buf
                0x0000000000111158      0x802 C:/devkitPro/libctru/lib\libctru.a(path_buf.o)
                0x0000000000111158                __ctru_dev_utf16_buf
 *(.gnu.linkonce.tb.*)
 *(.tcommon)
                0x000000000011195c                . = ALIGN (0x4)
 *fill*         0x000000000011195a        0x2 

.preinit_array  0x0000000000110d54        0x0
                0x0000000000110d54                PROVIDE (__preinit_array_start = .)
 *(.preinit_array)
                0x0000000000110d54                PROVIDE (__preinit_array_end = .)

.init_array     0x0000000000110d54        0x4
                0x0000000000110d54                PROVIDE (__init_array_start = .)
 *(SORT_BY_NAME(.init_array.*))
 *(.init_array)
 .init_array    0x0000000000110d54        0x4 c:/devkitpro/devkitarm/bin/../lib/gcc/arm-none-eabi/10.2.0/armv6k/fpu/crtbegin.o
                0x0000000000110d58                PROVIDE (__init_array_end = .)

.fini_array     0x0000000000110d58        0x4
                0x0000000000110d58                PROVIDE (__fini_array_start = .)
 *(.fini_array)
 .fini_array    0x0000000000110d58        0x4 c:/devkitpro/devkitarm/bin/../lib/gcc/arm-none-eabi/10.2.0/armv6k/fpu/crtbegin.o
 *(SORT_BY_NAME(.fini_array.*))
                0x0000000000110d5c                PROVIDE (__fini_array_end = .)

.ctors
 *crtbegin.o(.ctors)
 *(EXCLUDE_FILE(*crtend.o) .ctors)
 *(SORT_BY_NAME(.ctors.*))
 *(.ctors)

.dtors
 *crtbegin.o(.dtors)
 *(EXCLUDE_FILE(*crtend.o) .dtors)
 *(SORT_BY_NAME(.dtors.*))
 *(.dtors)
                0x0000000000110d5c                __bss_start__ = .

.bss            0x0000000000110d5c     0x3a04
 *(.dynbss)
 *(.bss)
 .bss           0x0000000000110d5c       0x60 main.o
 *(.bss.*)
 .bss.completed.1
                0x0000000000110dbc        0x1 c:/devkitpro/devkitarm/bin/../lib/gcc/arm-none-eabi/10.2.0/armv6k/fpu/crtbegin.o
 *fill*         0x0000000000110dbd        0x3 
 .bss.object.0  0x0000000000110dc0       0x18 c:/devkitpro/devkitarm/bin/../lib/gcc/arm-none-eabi/10.2.0/armv6k/fpu/crtbegin.o
 .bss.__C3D_Context
                0x0000000000110dd8      0x2d0 C:/devkitPro/libctru/lib\libcitro3d.a(base.o)
                0x0000000000110dd8                __C3D_Context
 .bss.hookCookie
                0x00000000001110a8        0xc C:/devkitPro/libctru/lib\libcitro3d.a(base.o)
 *fill*         0x00000000001110b4        0x4 
 .bss.cpuTime   0x00000000001110b8       0x10 C:/devkitPro/libctru/lib\libcitro3d.a(renderqueue.o)
 .bss.firstTarget
                0x00000000001110c8        0x4 C:/devkitPro/libctru/lib\libcitro3d.a(renderqueue.o)
 .bss.frameCounter
                0x00000000001110cc        0x8 C:/devkitPro/libctru/lib\libcitro3d.a(renderqueue.o)
 .bss.frameEndCb
                0x00000000001110d4        0x4 C:/devkitPro/libctru/lib\libcitro3d.a(renderqueue.o)
 .bss.frameEndCbData
                0x00000000001110d8        0x4 C:/devkitPro/libctru/lib\libcitro3d.a(renderqueue.o)
 *fill*         0x00000000001110dc        0x4 
 .bss.gpuTime   0x00000000001110e0       0x10 C:/devkitPro/libctru/lib\libcitro3d.a(renderqueue.o)
 .bss.inFrame   0x00000000001110f0        0x1 C:/devkitPro/libctru/lib\libcitro3d.a(renderqueue.o)
 .bss.inSafeTransfer
                0x00000000001110f1        0x1 C:/devkitPro/libctru/lib\libcitro3d.a(renderqueue.o)
 .bss.isTopStereo
                0x00000000001110f2        0x1 C:/devkitPro/libctru/lib\libcitro3d.a(renderqueue.o)
 *fill*         0x00000000001110f3        0x1 
 .bss.lastTarget
                0x00000000001110f4        0x4 C:/devkitPro/libctru/lib\libcitro3d.a(renderqueue.o)
 .bss.linkedTarget
                0x00000000001110f8        0xc C:/devkitPro/libctru/lib\libcitro3d.a(renderqueue.o)
 .bss.measureGpuTime
                0x0000000000111104        0x1 C:/devkitPro/libctru/lib\libcitro3d.a(renderqueue.o)
 .bss.needSwapBot
                0x0000000000111105        0x1 C:/devkitPro/libctru/lib\libcitro3d.a(renderqueue.o)
 .bss.needSwapTop
                0x0000000000111106        0x1 C:/devkitPro/libctru/lib\libcitro3d.a(renderqueue.o)
 *fill*         0x0000000000111107        0x1 
 .bss.C3D_BoolUnifs
                0x0000000000111108        0x4 C:/devkitPro/libctru/lib\libcitro3d.a(uniforms.o)
                0x0000000000111108                C3D_BoolUnifs
 .bss.C3D_BoolUnifsDirty
                0x000000000011110c        0x2 C:/devkitPro/libctru/lib\libcitro3d.a(uniforms.o)
                0x000000000011110c                C3D_BoolUnifsDirty
 *fill*         0x000000000011110e        0x2 
 .bss.C3D_FVUnif
                0x0000000000111110      0xc00 C:/devkitPro/libctru/lib\libcitro3d.a(uniforms.o)
                0x0000000000111110                C3D_FVUnif
 .bss.C3D_FVUnifDirty
                0x0000000000111d10       0xc0 C:/devkitPro/libctru/lib\libcitro3d.a(uniforms.o)
                0x0000000000111d10                C3D_FVUnifDirty
 .bss.C3D_IVUnif
                0x0000000000111dd0       0x20 C:/devkitPro/libctru/lib\libcitro3d.a(uniforms.o)
                0x0000000000111dd0                C3D_IVUnif
 .bss.C3D_IVUnifDirty
                0x0000000000111df0        0x8 C:/devkitPro/libctru/lib\libcitro3d.a(uniforms.o)
                0x0000000000111df0                C3D_IVUnifDirty
 .bss.C3Di_FVUnifEverDirty
                0x0000000000111df8       0xc0 C:/devkitPro/libctru/lib\libcitro3d.a(uniforms.o)
 .bss.C3Di_IVUnifEverDirty
                0x0000000000111eb8        0x8 C:/devkitPro/libctru/lib\libcitro3d.a(uniforms.o)
 .bss.C3Di_ShaderFVecData
                0x0000000000111ec0       0x18 C:/devkitPro/libctru/lib\libcitro3d.a(uniforms.o)
 .bss._ZL8sAddrMap
                0x0000000000111ed8        0xc C:/devkitPro/libctru/lib\libctru.a(vram.o)
 .bss._ZL9sVramPool
                0x0000000000111ee4        0x8 C:/devkitPro/libctru/lib\libctru.a(vram.o)
 .bss._ZL11sLinearPool
                0x0000000000111eec        0x8 C:/devkitPro/libctru/lib\libctru.a(linear.o)
 .bss._ZL8sAddrMap
                0x0000000000111ef4        0xc C:/devkitPro/libctru/lib\libctru.a(linear.o)
 .bss.__ctru_speedup
                0x0000000000111f00        0x1 C:/devkitPro/libctru/lib\libctru.a(os.o)
                0x0000000000111f00                __ctru_speedup
 *fill*         0x0000000000111f01        0x3 
 .bss.gfxBottomFramebufferMaxSize
                0x0000000000111f04        0x4 C:/devkitPro/libctru/lib\libctru.a(gfx.o)
 .bss.gfxBottomFramebuffers
                0x0000000000111f08        0x8 C:/devkitPro/libctru/lib\libctru.a(gfx.o)
 .bss.gfxCurBuf
                0x0000000000111f10        0x2 C:/devkitPro/libctru/lib\libctru.a(gfx.o)
 *fill*         0x0000000000111f12        0x2 
 .bss.gfxFramebufferFormats
                0x0000000000111f14        0x2 C:/devkitPro/libctru/lib\libctru.a(gfx.o)
 *fill*         0x0000000000111f16        0x2 
 .bss.gfxIsDoubleBuf
                0x0000000000111f18        0x2 C:/devkitPro/libctru/lib\libctru.a(gfx.o)
 .bss.gfxIsVram
                0x0000000000111f1a        0x1 C:/devkitPro/libctru/lib\libctru.a(gfx.o)
 *fill*         0x0000000000111f1b        0x1 
 .bss.gfxTopFramebufferMaxSize
                0x0000000000111f1c        0x4 C:/devkitPro/libctru/lib\libctru.a(gfx.o)
 .bss.gfxTopFramebuffers
                0x0000000000111f20        0x8 C:/devkitPro/libctru/lib\libctru.a(gfx.o)
 .bss.gfxTopMode
                0x0000000000111f28        0x1 C:/devkitPro/libctru/lib\libctru.a(gfx.o)
 *fill*         0x0000000000111f29        0x3 
 .bss.screenAlloc
                0x0000000000111f2c        0x4 C:/devkitPro/libctru/lib\libctru.a(gfx.o)
 .bss.screenFree
                0x0000000000111f30        0x4 C:/devkitPro/libctru/lib\libctru.a(gfx.o)
 .bss.boundQueue
                0x0000000000111f34        0x4 C:/devkitPro/libctru/lib\libctru.a(gx.o)
 .bss.curQueue  0x0000000000111f38        0x4 C:/devkitPro/libctru/lib\libctru.a(gxqueue.o)
 .bss.isActive  0x0000000000111f3c        0x1 C:/devkitPro/libctru/lib\libctru.a(gxqueue.o)
 .bss.isRunning
                0x0000000000111f3d        0x1 C:/devkitPro/libctru/lib\libctru.a(gxqueue.o)
 .bss.shouldStop
                0x0000000000111f3e        0x1 C:/devkitPro/libctru/lib\libctru.a(gxqueue.o)
 *fill*         0x0000000000111f3f        0x1 
 .bss.gpuCmdBuf
                0x0000000000111f40        0x4 C:/devkitPro/libctru/lib\libctru.a(gpu.o)
                0x0000000000111f40                gpuCmdBuf
 .bss.gpuCmdBufOffset
                0x0000000000111f44        0x4 C:/devkitPro/libctru/lib\libctru.a(gpu.o)
                0x0000000000111f44                gpuCmdBufOffset
 .bss.gpuCmdBufSize
                0x0000000000111f48        0x4 C:/devkitPro/libctru/lib\libctru.a(gpu.o)
                0x0000000000111f48                gpuCmdBufSize
 .bss.gspEvent  0x0000000000111f4c        0x4 C:/devkitPro/libctru/lib\libctru.a(gspgpu.o)
 .bss.gspEventCb
                0x0000000000111f50       0x1c C:/devkitPro/libctru/lib\libctru.a(gspgpu.o)
 .bss.gspEventCbData
                0x0000000000111f6c       0x1c C:/devkitPro/libctru/lib\libctru.a(gspgpu.o)
 .bss.gspEventCbOneShot
                0x0000000000111f88        0x7 C:/devkitPro/libctru/lib\libctru.a(gspgpu.o)
 *fill*         0x0000000000111f8f        0x1 
 .bss.gspEventThread
                0x0000000000111f90        0x4 C:/devkitPro/libctru/lib\libctru.a(gspgpu.o)
 .bss.gspEvents
                0x0000000000111f94       0x38 C:/devkitPro/libctru/lib\libctru.a(gspgpu.o)
 .bss.gspGpuHandle
                0x0000000000111fcc        0x4 C:/devkitPro/libctru/lib\libctru.a(gspgpu.o)
 .bss.gspGpuRight
                0x0000000000111fd0        0x1 C:/devkitPro/libctru/lib\libctru.a(gspgpu.o)
 *fill*         0x0000000000111fd1        0x3 
 .bss.gspLastEvent
                0x0000000000111fd4        0x4 C:/devkitPro/libctru/lib\libctru.a(gspgpu.o)
 .bss.gspRefCount
                0x0000000000111fd8        0x4 C:/devkitPro/libctru/lib\libctru.a(gspgpu.o)
 .bss.gspRunEvents
                0x0000000000111fdc        0x1 C:/devkitPro/libctru/lib\libctru.a(gspgpu.o)
 *fill*         0x0000000000111fdd        0x3 
 .bss.gspSharedMem
                0x0000000000111fe0        0x4 C:/devkitPro/libctru/lib\libctru.a(gspgpu.o)
 .bss.gspSharedMemHandle
                0x0000000000111fe4        0x4 C:/devkitPro/libctru/lib\libctru.a(gspgpu.o)
 .bss.gspThreadId
                0x0000000000111fe8        0x1 C:/devkitPro/libctru/lib\libctru.a(gspgpu.o)
 .bss.aptChainloadFlags
                0x0000000000111fe9        0x1 C:/devkitPro/libctru/lib\libctru.a(apt.o)
 .bss.aptChainloadMediatype
                0x0000000000111fea        0x1 C:/devkitPro/libctru/lib\libctru.a(apt.o)
 *fill*         0x0000000000111feb        0x5 
 .bss.aptChainloadTid
                0x0000000000111ff0        0x8 C:/devkitPro/libctru/lib\libctru.a(apt.o)
 .bss.aptEventHandlerThread
                0x0000000000111ff8        0x4 C:/devkitPro/libctru/lib\libctru.a(apt.o)
 .bss.aptEventHandlerThreadQuit
                0x0000000000111ffc        0x1 C:/devkitPro/libctru/lib\libctru.a(apt.o)
 *fill*         0x0000000000111ffd        0x3 
 .bss.aptEvents
                0x0000000000112000        0x8 C:/devkitPro/libctru/lib\libctru.a(apt.o)
 .bss.aptFirstHook
                0x0000000000112008        0xc C:/devkitPro/libctru/lib\libctru.a(apt.o)
 .bss.aptFlags  0x0000000000112014        0x4 C:/devkitPro/libctru/lib\libctru.a(apt.o)
 .bss.aptHomeButtonState
                0x0000000000112018        0x1 C:/devkitPro/libctru/lib\libctru.a(apt.o)
 *fill*         0x0000000000112019        0x3 
 .bss.aptLockHandle
                0x000000000011201c        0x4 C:/devkitPro/libctru/lib\libctru.a(apt.o)
 .bss.aptMessageFunc
                0x0000000000112020        0x4 C:/devkitPro/libctru/lib\libctru.a(apt.o)
 .bss.aptMessageFuncData
                0x0000000000112024        0x4 C:/devkitPro/libctru/lib\libctru.a(apt.o)
 .bss.aptParameters
                0x0000000000112028     0x1000 C:/devkitPro/libctru/lib\libctru.a(apt.o)
 .bss.aptReceiveEvent
                0x0000000000113028        0x8 C:/devkitPro/libctru/lib\libctru.a(apt.o)
 .bss.aptRefCount
                0x0000000000113030        0x4 C:/devkitPro/libctru/lib\libctru.a(apt.o)
 .bss.aptSleepEvent
                0x0000000000113034        0x8 C:/devkitPro/libctru/lib\libctru.a(apt.o)
 .bss.flagInit.1
                0x000000000011303c        0x1 C:/devkitPro/libctru/lib\libctru.a(apt.o)
 .bss.flagValue.0
                0x000000000011303d        0x1 C:/devkitPro/libctru/lib\libctru.a(apt.o)
 *fill*         0x000000000011303e        0x2 
 .bss.serviceName.6
                0x0000000000113040        0x4 C:/devkitPro/libctru/lib\libctru.a(apt.o)
 .bss.aVec      0x0000000000113044        0x6 C:/devkitPro/libctru/lib\libctru.a(hid.o)
 *fill*         0x000000000011304a        0x2 
 .bss.cPos      0x000000000011304c        0x4 C:/devkitPro/libctru/lib\libctru.a(hid.o)
 .bss.gRate     0x0000000000113050        0x6 C:/devkitPro/libctru/lib\libctru.a(hid.o)
 *fill*         0x0000000000113056        0x2 
 .bss.hidEvents
                0x0000000000113058       0x14 C:/devkitPro/libctru/lib\libctru.a(hid.o)
                0x0000000000113058                hidEvents
 .bss.hidHandle
                0x000000000011306c        0x4 C:/devkitPro/libctru/lib\libctru.a(hid.o)
                0x000000000011306c                hidHandle
 .bss.hidMemHandle
                0x0000000000113070        0x4 C:/devkitPro/libctru/lib\libctru.a(hid.o)
                0x0000000000113070                hidMemHandle
 .bss.hidRefCount
                0x0000000000113074        0x4 C:/devkitPro/libctru/lib\libctru.a(hid.o)
 .bss.hidSharedMem
                0x0000000000113078        0x4 C:/devkitPro/libctru/lib\libctru.a(hid.o)
                0x0000000000113078                hidSharedMem
 .bss.kDown     0x000000000011307c        0x4 C:/devkitPro/libctru/lib\libctru.a(hid.o)
 .bss.kHeld     0x0000000000113080        0x4 C:/devkitPro/libctru/lib\libctru.a(hid.o)
 .bss.kOld      0x0000000000113084        0x4 C:/devkitPro/libctru/lib\libctru.a(hid.o)
 .bss.kRepeat   0x0000000000113088        0x4 C:/devkitPro/libctru/lib\libctru.a(hid.o)
 .bss.kUp       0x000000000011308c        0x4 C:/devkitPro/libctru/lib\libctru.a(hid.o)
 .bss.tPos      0x0000000000113090        0x4 C:/devkitPro/libctru/lib\libctru.a(hid.o)
 .bss.usingIrrst
                0x0000000000113094        0x1 C:/devkitPro/libctru/lib\libctru.a(hid.o)
 *fill*         0x0000000000113095        0x3 
 .bss.ptmSysmHandle
                0x0000000000113098        0x4 C:/devkitPro/libctru/lib\libctru.a(ptmsysm.o)
 .bss.ptmSysmRefCount
                0x000000000011309c        0x4 C:/devkitPro/libctru/lib\libctru.a(ptmsysm.o)
 .bss.__ctru_heap
                0x00000000001130a0        0x4 C:/devkitPro/libctru/lib\libctru.a(allocateHeaps.o)
                0x00000000001130a0                __ctru_heap
 .bss.__ctru_heap_size
                0x00000000001130a4        0x4 C:/devkitPro/libctru/lib\libctru.a(allocateHeaps.o)
                0x00000000001130a4                __ctru_heap_size
 .bss.__ctru_linear_heap
                0x00000000001130a8        0x4 C:/devkitPro/libctru/lib\libctru.a(allocateHeaps.o)
                0x00000000001130a8                __ctru_linear_heap
 .bss.__ctru_linear_heap_size
                0x00000000001130ac        0x4 C:/devkitPro/libctru/lib\libctru.a(allocateHeaps.o)
                0x00000000001130ac                __ctru_linear_heap_size
 .bss.__system_retAddr
                0x00000000001130b0        0x4 C:/devkitPro/libctru/lib\libctru.a(ctru_init.o)
                0x00000000001130b0                __system_retAddr
 .bss.__system_argc
                0x00000000001130b4        0x4 C:/devkitPro/libctru/lib\libctru.a(initArgv.o)
                0x00000000001130b4                __system_argc
 .bss.__system_argv
                0x00000000001130b8        0x4 C:/devkitPro/libctru/lib\libctru.a(initArgv.o)
                0x00000000001130b8                __system_argv
 .bss.saved_stack.42
                0x00000000001130bc        0x8 C:/devkitPro/libctru/lib\libctru.a(stack_adjust.o)
 .bss.arbiter   0x00000000001130c4        0x4 C:/devkitPro/libctru/lib\libctru.a(synchronization.o)
 .bss.srvHandle
                0x00000000001130c8        0x4 C:/devkitPro/libctru/lib\libctru.a(srv.o)
 .bss.srvRefCount
                0x00000000001130cc        0x4 C:/devkitPro/libctru/lib\libctru.a(srv.o)
 .bss.currentAddr
                0x00000000001130d0        0x4 C:/devkitPro/libctru/lib\libctru.a(mappable.o)
 .bss.maxAddr   0x00000000001130d4        0x4 C:/devkitPro/libctru/lib\libctru.a(mappable.o)
 .bss.minAddr   0x00000000001130d8        0x4 C:/devkitPro/libctru/lib\libctru.a(mappable.o)
 .bss.csPos     0x00000000001130dc        0x4 C:/devkitPro/libctru/lib\libctru.a(irrst.o)
 .bss.irrstEvent
                0x00000000001130e0        0x4 C:/devkitPro/libctru/lib\libctru.a(irrst.o)
                0x00000000001130e0                irrstEvent
 .bss.irrstHandle
                0x00000000001130e4        0x4 C:/devkitPro/libctru/lib\libctru.a(irrst.o)
                0x00000000001130e4                irrstHandle
 .bss.irrstMemHandle
                0x00000000001130e8        0x4 C:/devkitPro/libctru/lib\libctru.a(irrst.o)
                0x00000000001130e8                irrstMemHandle
 .bss.irrstRefCount
                0x00000000001130ec        0x4 C:/devkitPro/libctru/lib\libctru.a(irrst.o)
 .bss.irrstSharedMem
                0x00000000001130f0        0x4 C:/devkitPro/libctru/lib\libctru.a(irrst.o)
                0x00000000001130f0                irrstSharedMem
 .bss.kHeld     0x00000000001130f4        0x4 C:/devkitPro/libctru/lib\libctru.a(irrst.o)
 .bss.srvPmHandle
                0x00000000001130f8        0x4 C:/devkitPro/libctru/lib\libctru.a(srvpm.o)
 .bss.archive_device_cwd
                0x00000000001130fc        0x4 C:/devkitPro/libctru/lib\libctru.a(archive_dev.o)
 .bss.archive_devices
                0x0000000000113100      0x540 C:/devkitPro/libctru/lib\libctru.a(archive_dev.o)
 .bss.archive_initialized
                0x0000000000113640        0x1 C:/devkitPro/libctru/lib\libctru.a(archive_dev.o)
 *fill*         0x0000000000113641        0x7 
 .bss.fsExemptArchives
                0x0000000000113648       0x80 C:/devkitPro/libctru/lib\libctru.a(fs.o)
 .bss.fsuHandle
                0x00000000001136c8        0x4 C:/devkitPro/libctru/lib\libctru.a(fs.o)
 .bss.fsuRefCount
                0x00000000001136cc        0x4 C:/devkitPro/libctru/lib\libctru.a(fs.o)
 .bss.__malloc_current_mallinfo
                0x00000000001136d0       0x28 c:/devkitpro/devkitarm/bin/../lib/gcc/arm-none-eabi/10.2.0/../../../../arm-none-eabi/lib/armv6k/fpu\libg.a(lib_a-mallocr.o)
                0x00000000001136d0                __malloc_current_mallinfo
 .bss.__malloc_max_sbrked_mem
                0x00000000001136f8        0x4 c:/devkitpro/devkitarm/bin/../lib/gcc/arm-none-eabi/10.2.0/../../../../arm-none-eabi/lib/armv6k/fpu\libg.a(lib_a-mallocr.o)
                0x00000000001136f8                __malloc_max_sbrked_mem
 .bss.__malloc_max_total_mem
                0x00000000001136fc        0x4 c:/devkitpro/devkitarm/bin/../lib/gcc/arm-none-eabi/10.2.0/../../../../arm-none-eabi/lib/armv6k/fpu\libg.a(lib_a-mallocr.o)
                0x00000000001136fc                __malloc_max_total_mem
 .bss.__malloc_top_pad
                0x0000000000113700        0x4 c:/devkitpro/devkitarm/bin/../lib/gcc/arm-none-eabi/10.2.0/../../../../arm-none-eabi/lib/armv6k/fpu\libg.a(lib_a-mallocr.o)
                0x0000000000113700                __malloc_top_pad
 .bss.heap_start.0
                0x0000000000113704        0x4 c:/devkitpro/devkitarm/bin/../lib/gcc/arm-none-eabi/10.2.0/../../../../arm-none-eabi/lib/armv6k/fpu\libsysbase.a(sbrk.o)
 .bss.fake_heap_end
                0x0000000000113708        0x4 c:/devkitpro/devkitarm/bin/../lib/gcc/arm-none-eabi/10.2.0/../../../../arm-none-eabi/lib/armv6k/fpu\libsysbase.a(malloc_vars.o)
                0x0000000000113708                fake_heap_end
 .bss.fake_heap_start
                0x000000000011370c        0x4 c:/devkitpro/devkitarm/bin/../lib/gcc/arm-none-eabi/10.2.0/../../../../arm-none-eabi/lib/armv6k/fpu\libsysbase.a(malloc_vars.o)
                0x000000000011370c                fake_heap_start
 .bss.temp_cwd  0x0000000000113710      0x400 c:/devkitpro/devkitarm/bin/../lib/gcc/arm-none-eabi/10.2.0/../../../../arm-none-eabi/lib/armv6k/fpu\libsysbase.a(chdir.o)
 .bss.__syscalls
                0x0000000000113b10       0x48 c:/devkitpro/devkitarm/bin/../lib/gcc/arm-none-eabi/10.2.0/../../../../arm-none-eabi/lib/armv6k/fpu\libsysbase.a(syscall_support.o)
                0x0000000000113b10                __syscalls
 *(.gnu.linkonce.b*)
 *(COMMON)
                0x0000000000113b58                . = ALIGN (0x4)
                0x0000000000113b58                __tls_start = .
                0x0000000000114760                . = (. + (SIZEOF (.tdata) + SIZEOF (.tbss)))
 *fill*         0x0000000000113b58      0xc08 
                0x0000000000114760                __tls_end = .
                0x0000000000114760                __bss_end__ = .
                0x0000000000114760                __end__ = ABSOLUTE (.)

/DISCARD/
 *(.group .comment .note)

.stab
 *(.stab)

.stabstr
 *(.stabstr)

.stab.excl
 *(.stab.excl)

.stab.exclstr
 *(.stab.exclstr)

.stab.index
 *(.stab.index)

.stab.indexstr
 *(.stab.indexstr)

.debug
 *(.debug)

.line
 *(.line)

.debug_srcinfo
 *(.debug_srcinfo)

.debug_sfnames
 *(.debug_sfnames)

.debug_aranges  0x0000000000000000     0x1a78
 *(.debug_aranges)
 .debug_aranges
                0x0000000000000000       0x20 main.o
 .debug_aranges
                0x0000000000000020       0x70 C:/devkitPro/libctru/lib\libcitro3d.a(base.o)
 .debug_aranges
                0x0000000000000090       0xe8 C:/devkitPro/libctru/lib\libcitro3d.a(renderqueue.o)
 .debug_aranges
                0x0000000000000178       0x58 C:/devkitPro/libctru/lib\libcitro3d.a(texture.o)
 .debug_aranges
                0x00000000000001d0       0x58 C:/devkitPro/libctru/lib\libcitro3d.a(framebuffer.o)
 .debug_aranges
                0x0000000000000228       0x48 C:/devkitPro/libctru/lib\libcitro3d.a(texenv.o)
 .debug_aranges
                0x0000000000000270       0x40 C:/devkitPro/libctru/lib\libcitro3d.a(buffers.o)
 .debug_aranges
                0x00000000000002b0       0x20 C:/devkitPro/libctru/lib\libcitro3d.a(drawArrays.o)
 .debug_aranges
                0x00000000000002d0       0x80 C:/devkitPro/libctru/lib\libcitro3d.a(effect.o)
 .debug_aranges
                0x0000000000000350       0x48 C:/devkitPro/libctru/lib\libcitro3d.a(attribs.o)
 .debug_aranges
                0x0000000000000398       0x30 C:/devkitPro/libctru/lib\libcitro3d.a(immediate.o)
 .debug_aranges
                0x00000000000003c8       0x38 C:/devkitPro/libctru/lib\libcitro3d.a(uniforms.o)
 .debug_aranges
                0x0000000000000400       0x20 C:/devkitPro/libctru/lib\libcitro3d.a(mtx_orthotilt.o)
 .debug_aranges
                0x0000000000000420       0x58 C:/devkitPro/libctru/lib\libctru.a(vram.o)
 .debug_aranges
                0x0000000000000478       0x58 C:/devkitPro/libctru/lib\libctru.a(linear.o)
 .debug_aranges
                0x00000000000004d0       0x38 C:/devkitPro/libctru/lib\libctru.a(mem_pool.o)
 .debug_aranges
                0x0000000000000508       0x60 C:/devkitPro/libctru/lib\libctru.a(os.o)
 .debug_aranges
                0x0000000000000568       0x98 C:/devkitPro/libctru/lib\libctru.a(gfx.o)
 .debug_aranges
                0x0000000000000600       0x78 C:/devkitPro/libctru/lib\libctru.a(shaderProgram.o)
 .debug_aranges
                0x0000000000000678       0x40 C:/devkitPro/libctru/lib\libctru.a(shbin.o)
 .debug_aranges
                0x00000000000006b8       0x58 C:/devkitPro/libctru/lib\libctru.a(gx.o)
 .debug_aranges
                0x0000000000000710       0x50 C:/devkitPro/libctru/lib\libctru.a(gxqueue.o)
 .debug_aranges
                0x0000000000000760       0x50 C:/devkitPro/libctru/lib\libctru.a(gpu.o)
 .debug_aranges
                0x00000000000007b0       0xf8 C:/devkitPro/libctru/lib\libctru.a(gspgpu.o)
 .debug_aranges
                0x00000000000008a8      0x250 C:/devkitPro/libctru/lib\libctru.a(apt.o)
 .debug_aranges
                0x0000000000000af8       0xd0 C:/devkitPro/libctru/lib\libctru.a(hid.o)
 .debug_aranges
                0x0000000000000bc8       0x90 C:/devkitPro/libctru/lib\libctru.a(ptmsysm.o)
 .debug_aranges
                0x0000000000000c58       0x20 C:/devkitPro/libctru/lib\libctru.a(rbtree_init.o)
 .debug_aranges
                0x0000000000000c78       0x30 C:/devkitPro/libctru/lib\libctru.a(rbtree_insert.o)
 .debug_aranges
                0x0000000000000ca8       0x20 C:/devkitPro/libctru/lib\libctru.a(rbtree_rotate.o)
 .debug_aranges
                0x0000000000000cc8       0x20 C:/devkitPro/libctru/lib\libctru.a(rbtree_remove.o)
 .debug_aranges
                0x0000000000000ce8       0x20 C:/devkitPro/libctru/lib\libctru.a(rbtree_find.o)
 .debug_aranges
                0x0000000000000d08       0x20 C:/devkitPro/libctru/lib\libctru.a(allocateHeaps.o)
 .debug_aranges
                0x0000000000000d28       0x20 C:/devkitPro/libctru/lib\libctru.a(ctru_init.o)
 .debug_aranges
                0x0000000000000d48       0x20 C:/devkitPro/libctru/lib\libctru.a(initArgv.o)
 .debug_aranges
                0x0000000000000d68      0x330 C:/devkitPro/libctru/lib\libctru.a(svc.o)
 .debug_aranges
                0x0000000000001098       0x28 C:/devkitPro/libctru/lib\libctru.a(stack_adjust.o)
 .debug_aranges
                0x00000000000010c0       0xf0 C:/devkitPro/libctru/lib\libctru.a(synchronization.o)
 .debug_aranges
                0x00000000000011b0       0xc0 C:/devkitPro/libctru/lib\libctru.a(srv.o)
 .debug_aranges
                0x0000000000001270       0x60 C:/devkitPro/libctru/lib\libctru.a(thread.o)
 .debug_aranges
                0x00000000000012d0       0x38 C:/devkitPro/libctru/lib\libctru.a(mappable.o)
 .debug_aranges
                0x0000000000001308       0x68 C:/devkitPro/libctru/lib\libctru.a(irrst.o)
 .debug_aranges
                0x0000000000001370       0x50 C:/devkitPro/libctru/lib\libctru.a(srvpm.o)
 .debug_aranges
                0x00000000000013c0       0x28 C:/devkitPro/libctru/lib\libctru.a(rbtree_iterator.o)
 .debug_aranges
                0x00000000000013e8       0x20 C:/devkitPro/libctru/lib\libctru.a(appInit.o)
 .debug_aranges
                0x0000000000001408       0x30 C:/devkitPro/libctru/lib\libctru.a(syscalls.o)
 .debug_aranges
                0x0000000000001438       0x20 C:/devkitPro/libctru/lib\libctru.a(appExit.o)
 .debug_aranges
                0x0000000000001458       0x20 C:/devkitPro/libctru/lib\libctru.a(ctru_exit.o)
 .debug_aranges
                0x0000000000001478       0x28 C:/devkitPro/libctru/lib\libctru.a(env.o)
 .debug_aranges
                0x00000000000014a0      0x130 C:/devkitPro/libctru/lib\libctru.a(archive_dev.o)
 .debug_aranges
                0x00000000000015d0      0x3b0 C:/devkitPro/libctru/lib\libctru.a(fs.o)
 .debug_aranges
                0x0000000000001980       0x20 C:/devkitPro/libctru/lib\libctru.a(utf16_to_utf8.o)
 .debug_aranges
                0x00000000000019a0       0x20 C:/devkitPro/libctru/lib\libctru.a(decode_utf16.o)
 .debug_aranges
                0x00000000000019c0       0x20 C:/devkitPro/libctru/lib\libctru.a(decode_utf8.o)
 .debug_aranges
                0x00000000000019e0       0x20 C:/devkitPro/libctru/lib\libctru.a(utf8_to_utf16.o)
 .debug_aranges
                0x0000000000001a00       0x20 C:/devkitPro/libctru/lib\libctru.a(readtp.o)
 .debug_aranges
                0x0000000000001a20       0x18 C:/devkitPro/libctru/lib\libctru.a(path_buf.o)
 .debug_aranges
                0x0000000000001a38       0x20 C:/devkitPro/libctru/lib\libctru.a(encode_utf16.o)
 .debug_aranges
                0x0000000000001a58       0x20 C:/devkitPro/libctru/lib\libctru.a(encode_utf8.o)

.debug_pubnames
 *(.debug_pubnames)

.debug_info     0x0000000000000000    0x45334
 *(.debug_info)
 .debug_info    0x0000000000000000     0x17b8 main.o
 .debug_info    0x00000000000017b8     0x2b62 C:/devkitPro/libctru/lib\libcitro3d.a(base.o)
 .debug_info    0x000000000000431a     0x386a C:/devkitPro/libctru/lib\libcitro3d.a(renderqueue.o)
 .debug_info    0x0000000000007b84     0x27e6 C:/devkitPro/libctru/lib\libcitro3d.a(texture.o)
 .debug_info    0x000000000000a36a     0x20ff C:/devkitPro/libctru/lib\libcitro3d.a(framebuffer.o)
 .debug_info    0x000000000000c469     0x1932 C:/devkitPro/libctru/lib\libcitro3d.a(texenv.o)
 .debug_info    0x000000000000dd9b     0x18db C:/devkitPro/libctru/lib\libcitro3d.a(buffers.o)
 .debug_info    0x000000000000f676     0x1a88 C:/devkitPro/libctru/lib\libcitro3d.a(drawArrays.o)
 .debug_info    0x00000000000110fe     0x2249 C:/devkitPro/libctru/lib\libcitro3d.a(effect.o)
 .debug_info    0x0000000000013347     0x1915 C:/devkitPro/libctru/lib\libcitro3d.a(attribs.o)
 .debug_info    0x0000000000014c5c     0x1c2a C:/devkitPro/libctru/lib\libcitro3d.a(immediate.o)
 .debug_info    0x0000000000016886      0xaab C:/devkitPro/libctru/lib\libcitro3d.a(uniforms.o)
 .debug_info    0x0000000000017331      0x29d C:/devkitPro/libctru/lib\libcitro3d.a(mtx_orthotilt.o)
 .debug_info    0x00000000000175ce     0x1386 C:/devkitPro/libctru/lib\libctru.a(vram.o)
 .debug_info    0x0000000000018954     0x1129 C:/devkitPro/libctru/lib\libctru.a(linear.o)
 .debug_info    0x0000000000019a7d     0x10aa C:/devkitPro/libctru/lib\libctru.a(mem_pool.o)
 .debug_info    0x000000000001ab27     0x10cd C:/devkitPro/libctru/lib\libctru.a(os.o)
 .debug_info    0x000000000001bbf4      0xc6c C:/devkitPro/libctru/lib\libctru.a(gfx.o)
 .debug_info    0x000000000001c860     0x1bf4 C:/devkitPro/libctru/lib\libctru.a(shaderProgram.o)
 .debug_info    0x000000000001e454      0x874 C:/devkitPro/libctru/lib\libctru.a(shbin.o)
 .debug_info    0x000000000001ecc8      0x78e C:/devkitPro/libctru/lib\libctru.a(gx.o)
 .debug_info    0x000000000001f456      0x716 C:/devkitPro/libctru/lib\libctru.a(gxqueue.o)
 .debug_info    0x000000000001fb6c      0x6de C:/devkitPro/libctru/lib\libctru.a(gpu.o)
 .debug_info    0x000000000002024a     0x5a78 C:/devkitPro/libctru/lib\libctru.a(gspgpu.o)
 .debug_info    0x0000000000025cc2     0x52df C:/devkitPro/libctru/lib\libctru.a(apt.o)
 .debug_info    0x000000000002afa1     0x13e6 C:/devkitPro/libctru/lib\libctru.a(hid.o)
 .debug_info    0x000000000002c387      0xac3 C:/devkitPro/libctru/lib\libctru.a(ptmsysm.o)
 .debug_info    0x000000000002ce4a      0x18c C:/devkitPro/libctru/lib\libctru.a(rbtree_init.o)
 .debug_info    0x000000000002cfd6      0x697 C:/devkitPro/libctru/lib\libctru.a(rbtree_insert.o)
 .debug_info    0x000000000002d66d      0x36f C:/devkitPro/libctru/lib\libctru.a(rbtree_rotate.o)
 .debug_info    0x000000000002d9dc      0x994 C:/devkitPro/libctru/lib\libctru.a(rbtree_remove.o)
 .debug_info    0x000000000002e370      0x1f4 C:/devkitPro/libctru/lib\libctru.a(rbtree_find.o)
 .debug_info    0x000000000002e564      0x498 C:/devkitPro/libctru/lib\libctru.a(allocateHeaps.o)
 .debug_info    0x000000000002e9fc      0x166 C:/devkitPro/libctru/lib\libctru.a(ctru_init.o)
 .debug_info    0x000000000002eb62      0x1b7 C:/devkitPro/libctru/lib\libctru.a(initArgv.o)
 .debug_info    0x000000000002ed19       0x22 C:/devkitPro/libctru/lib\libctru.a(svc.o)
 .debug_info    0x000000000002ed3b       0x22 C:/devkitPro/libctru/lib\libctru.a(stack_adjust.o)
 .debug_info    0x000000000002ed5d     0x2918 C:/devkitPro/libctru/lib\libctru.a(synchronization.o)
 .debug_info    0x0000000000031675     0x1c92 C:/devkitPro/libctru/lib\libctru.a(srv.o)
 .debug_info    0x0000000000033307     0x1186 C:/devkitPro/libctru/lib\libctru.a(thread.o)
 .debug_info    0x000000000003448d      0x342 C:/devkitPro/libctru/lib\libctru.a(mappable.o)
 .debug_info    0x00000000000347cf      0xab4 C:/devkitPro/libctru/lib\libctru.a(irrst.o)
 .debug_info    0x0000000000035283      0x8af C:/devkitPro/libctru/lib\libctru.a(srvpm.o)
 .debug_info    0x0000000000035b32      0x358 C:/devkitPro/libctru/lib\libctru.a(rbtree_iterator.o)
 .debug_info    0x0000000000035e8a      0x11d C:/devkitPro/libctru/lib\libctru.a(appInit.o)
 .debug_info    0x0000000000035fa7      0xf47 C:/devkitPro/libctru/lib\libctru.a(syscalls.o)
 .debug_info    0x0000000000036eee      0x11d C:/devkitPro/libctru/lib\libctru.a(appExit.o)
 .debug_info    0x000000000003700b      0x22c C:/devkitPro/libctru/lib\libctru.a(ctru_exit.o)
 .debug_info    0x0000000000037237      0x287 C:/devkitPro/libctru/lib\libctru.a(env.o)
 .debug_info    0x00000000000374be     0x3fc3 C:/devkitPro/libctru/lib\libctru.a(archive_dev.o)
 .debug_info    0x000000000003b481     0x9519 C:/devkitPro/libctru/lib\libctru.a(fs.o)
 .debug_info    0x000000000004499a      0x1f2 C:/devkitPro/libctru/lib\libctru.a(utf16_to_utf8.o)
 .debug_info    0x0000000000044b8c      0x13d C:/devkitPro/libctru/lib\libctru.a(decode_utf16.o)
 .debug_info    0x0000000000044cc9      0x15d C:/devkitPro/libctru/lib\libctru.a(decode_utf8.o)
 .debug_info    0x0000000000044e26      0x1f2 C:/devkitPro/libctru/lib\libctru.a(utf8_to_utf16.o)
 .debug_info    0x0000000000045018       0x26 C:/devkitPro/libctru/lib\libctru.a(readtp.o)
 .debug_info    0x000000000004503e       0xe2 C:/devkitPro/libctru/lib\libctru.a(path_buf.o)
 .debug_info    0x0000000000045120      0x10a C:/devkitPro/libctru/lib\libctru.a(encode_utf16.o)
 .debug_info    0x000000000004522a      0x10a C:/devkitPro/libctru/lib\libctru.a(encode_utf8.o)

.debug_abbrev   0x0000000000000000     0x996b
 *(.debug_abbrev)
 .debug_abbrev  0x0000000000000000      0x301 main.o
 .debug_abbrev  0x0000000000000301      0x534 C:/devkitPro/libctru/lib\libcitro3d.a(base.o)
 .debug_abbrev  0x0000000000000835      0x612 C:/devkitPro/libctru/lib\libcitro3d.a(renderqueue.o)
 .debug_abbrev  0x0000000000000e47      0x4ce C:/devkitPro/libctru/lib\libcitro3d.a(texture.o)
 .debug_abbrev  0x0000000000001315      0x3a1 C:/devkitPro/libctru/lib\libcitro3d.a(framebuffer.o)
 .debug_abbrev  0x00000000000016b6      0x2f2 C:/devkitPro/libctru/lib\libcitro3d.a(texenv.o)
 .debug_abbrev  0x00000000000019a8      0x304 C:/devkitPro/libctru/lib\libcitro3d.a(buffers.o)
 .debug_abbrev  0x0000000000001cac      0x2b1 C:/devkitPro/libctru/lib\libcitro3d.a(drawArrays.o)
 .debug_abbrev  0x0000000000001f5d      0x32d C:/devkitPro/libctru/lib\libcitro3d.a(effect.o)
 .debug_abbrev  0x000000000000228a      0x2fb C:/devkitPro/libctru/lib\libcitro3d.a(attribs.o)
 .debug_abbrev  0x0000000000002585      0x323 C:/devkitPro/libctru/lib\libcitro3d.a(immediate.o)
 .debug_abbrev  0x00000000000028a8      0x27f C:/devkitPro/libctru/lib\libcitro3d.a(uniforms.o)
 .debug_abbrev  0x0000000000002b27      0x147 C:/devkitPro/libctru/lib\libcitro3d.a(mtx_orthotilt.o)
 .debug_abbrev  0x0000000000002c6e      0x457 C:/devkitPro/libctru/lib\libctru.a(vram.o)
 .debug_abbrev  0x00000000000030c5      0x42b C:/devkitPro/libctru/lib\libctru.a(linear.o)
 .debug_abbrev  0x00000000000034f0      0x3b6 C:/devkitPro/libctru/lib\libctru.a(mem_pool.o)
 .debug_abbrev  0x00000000000038a6      0x3a6 C:/devkitPro/libctru/lib\libctru.a(os.o)
 .debug_abbrev  0x0000000000003c4c      0x33f C:/devkitPro/libctru/lib\libctru.a(gfx.o)
 .debug_abbrev  0x0000000000003f8b      0x3ad C:/devkitPro/libctru/lib\libctru.a(shaderProgram.o)
 .debug_abbrev  0x0000000000004338      0x240 C:/devkitPro/libctru/lib\libctru.a(shbin.o)
 .debug_abbrev  0x0000000000004578      0x1d6 C:/devkitPro/libctru/lib\libctru.a(gx.o)
 .debug_abbrev  0x000000000000474e      0x2a5 C:/devkitPro/libctru/lib\libctru.a(gxqueue.o)
 .debug_abbrev  0x00000000000049f3      0x246 C:/devkitPro/libctru/lib\libctru.a(gpu.o)
 .debug_abbrev  0x0000000000004c39      0x5a9 C:/devkitPro/libctru/lib\libctru.a(gspgpu.o)
 .debug_abbrev  0x00000000000051e2      0x6ec C:/devkitPro/libctru/lib\libctru.a(apt.o)
 .debug_abbrev  0x00000000000058ce      0x48a C:/devkitPro/libctru/lib\libctru.a(hid.o)
 .debug_abbrev  0x0000000000005d58      0x218 C:/devkitPro/libctru/lib\libctru.a(ptmsysm.o)
 .debug_abbrev  0x0000000000005f70       0xbc C:/devkitPro/libctru/lib\libctru.a(rbtree_init.o)
 .debug_abbrev  0x000000000000602c      0x23f C:/devkitPro/libctru/lib\libctru.a(rbtree_insert.o)
 .debug_abbrev  0x000000000000626b      0x1b5 C:/devkitPro/libctru/lib\libctru.a(rbtree_rotate.o)
 .debug_abbrev  0x0000000000006420      0x245 C:/devkitPro/libctru/lib\libctru.a(rbtree_remove.o)
 .debug_abbrev  0x0000000000006665      0x105 C:/devkitPro/libctru/lib\libctru.a(rbtree_find.o)
 .debug_abbrev  0x000000000000676a      0x162 C:/devkitPro/libctru/lib\libctru.a(allocateHeaps.o)
 .debug_abbrev  0x00000000000068cc       0xf9 C:/devkitPro/libctru/lib\libctru.a(ctru_init.o)
 .debug_abbrev  0x00000000000069c5      0x128 C:/devkitPro/libctru/lib\libctru.a(initArgv.o)
 .debug_abbrev  0x0000000000006aed       0x12 C:/devkitPro/libctru/lib\libctru.a(svc.o)
 .debug_abbrev  0x0000000000006aff       0x12 C:/devkitPro/libctru/lib\libctru.a(stack_adjust.o)
 .debug_abbrev  0x0000000000006b11      0x4cc C:/devkitPro/libctru/lib\libctru.a(synchronization.o)
 .debug_abbrev  0x0000000000006fdd      0x4d5 C:/devkitPro/libctru/lib\libctru.a(srv.o)
 .debug_abbrev  0x00000000000074b2      0x41f C:/devkitPro/libctru/lib\libctru.a(thread.o)
 .debug_abbrev  0x00000000000078d1      0x1a4 C:/devkitPro/libctru/lib\libctru.a(mappable.o)
 .debug_abbrev  0x0000000000007a75      0x33a C:/devkitPro/libctru/lib\libctru.a(irrst.o)
 .debug_abbrev  0x0000000000007daf      0x2a6 C:/devkitPro/libctru/lib\libctru.a(srvpm.o)
 .debug_abbrev  0x0000000000008055      0x1a5 C:/devkitPro/libctru/lib\libctru.a(rbtree_iterator.o)
 .debug_abbrev  0x00000000000081fa       0x64 C:/devkitPro/libctru/lib\libctru.a(appInit.o)
 .debug_abbrev  0x000000000000825e      0x35a C:/devkitPro/libctru/lib\libctru.a(syscalls.o)
 .debug_abbrev  0x00000000000085b8       0x72 C:/devkitPro/libctru/lib\libctru.a(appExit.o)
 .debug_abbrev  0x000000000000862a      0x127 C:/devkitPro/libctru/lib\libctru.a(ctru_exit.o)
 .debug_abbrev  0x0000000000008751      0x1b1 C:/devkitPro/libctru/lib\libctru.a(env.o)
 .debug_abbrev  0x0000000000008902      0x60d C:/devkitPro/libctru/lib\libctru.a(archive_dev.o)
 .debug_abbrev  0x0000000000008f0f      0x5d0 C:/devkitPro/libctru/lib\libctru.a(fs.o)
 .debug_abbrev  0x00000000000094df       0xfd C:/devkitPro/libctru/lib\libctru.a(utf16_to_utf8.o)
 .debug_abbrev  0x00000000000095dc       0x8f C:/devkitPro/libctru/lib\libctru.a(decode_utf16.o)
 .debug_abbrev  0x000000000000966b       0x9e C:/devkitPro/libctru/lib\libctru.a(decode_utf8.o)
 .debug_abbrev  0x0000000000009709       0xfd C:/devkitPro/libctru/lib\libctru.a(utf8_to_utf16.o)
 .debug_abbrev  0x0000000000009806       0x14 C:/devkitPro/libctru/lib\libctru.a(readtp.o)
 .debug_abbrev  0x000000000000981a       0x69 C:/devkitPro/libctru/lib\libctru.a(path_buf.o)
 .debug_abbrev  0x0000000000009883       0x74 C:/devkitPro/libctru/lib\libctru.a(encode_utf16.o)
 .debug_abbrev  0x00000000000098f7       0x74 C:/devkitPro/libctru/lib\libctru.a(encode_utf8.o)

.debug_line     0x0000000000000000    0x22cc8
 *(.debug_line)
 .debug_line    0x0000000000000000      0x58f main.o
 .debug_line    0x000000000000058f      0xf41 C:/devkitPro/libctru/lib\libcitro3d.a(base.o)
 .debug_line    0x00000000000014d0     0x1406 C:/devkitPro/libctru/lib\libcitro3d.a(renderqueue.o)
 .debug_line    0x00000000000028d6      0xde8 C:/devkitPro/libctru/lib\libcitro3d.a(texture.o)
 .debug_line    0x00000000000036be      0x779 C:/devkitPro/libctru/lib\libcitro3d.a(framebuffer.o)
 .debug_line    0x0000000000003e37      0x478 C:/devkitPro/libctru/lib\libcitro3d.a(texenv.o)
 .debug_line    0x00000000000042af      0x41b C:/devkitPro/libctru/lib\libcitro3d.a(buffers.o)
 .debug_line    0x00000000000046ca      0x3df C:/devkitPro/libctru/lib\libcitro3d.a(drawArrays.o)
 .debug_line    0x0000000000004aa9      0x861 C:/devkitPro/libctru/lib\libcitro3d.a(effect.o)
 .debug_line    0x000000000000530a      0x492 C:/devkitPro/libctru/lib\libcitro3d.a(attribs.o)
 .debug_line    0x000000000000579c      0x477 C:/devkitPro/libctru/lib\libcitro3d.a(immediate.o)
 .debug_line    0x0000000000005c13      0x5b8 C:/devkitPro/libctru/lib\libcitro3d.a(uniforms.o)
 .debug_line    0x00000000000061cb      0x1a5 C:/devkitPro/libctru/lib\libcitro3d.a(mtx_orthotilt.o)
 .debug_line    0x0000000000006370      0x641 C:/devkitPro/libctru/lib\libctru.a(vram.o)
 .debug_line    0x00000000000069b1      0x643 C:/devkitPro/libctru/lib\libctru.a(linear.o)
 .debug_line    0x0000000000006ff4      0x7d1 C:/devkitPro/libctru/lib\libctru.a(mem_pool.o)
 .debug_line    0x00000000000077c5      0x59b C:/devkitPro/libctru/lib\libctru.a(os.o)
 .debug_line    0x0000000000007d60      0x842 C:/devkitPro/libctru/lib\libctru.a(gfx.o)
 .debug_line    0x00000000000085a2     0x1106 C:/devkitPro/libctru/lib\libctru.a(shaderProgram.o)
 .debug_line    0x00000000000096a8      0x799 C:/devkitPro/libctru/lib\libctru.a(shbin.o)
 .debug_line    0x0000000000009e41      0x532 C:/devkitPro/libctru/lib\libctru.a(gx.o)
 .debug_line    0x000000000000a373      0x571 C:/devkitPro/libctru/lib\libctru.a(gxqueue.o)
 .debug_line    0x000000000000a8e4      0x59c C:/devkitPro/libctru/lib\libctru.a(gpu.o)
 .debug_line    0x000000000000ae80     0x377d C:/devkitPro/libctru/lib\libctru.a(gspgpu.o)
 .debug_line    0x000000000000e5fd     0x3768 C:/devkitPro/libctru/lib\libctru.a(apt.o)
 .debug_line    0x0000000000011d65      0xd42 C:/devkitPro/libctru/lib\libctru.a(hid.o)
 .debug_line    0x0000000000012aa7      0x878 C:/devkitPro/libctru/lib\libctru.a(ptmsysm.o)
 .debug_line    0x000000000001331f      0x1cf C:/devkitPro/libctru/lib\libctru.a(rbtree_init.o)
 .debug_line    0x00000000000134ee      0x530 C:/devkitPro/libctru/lib\libctru.a(rbtree_insert.o)
 .debug_line    0x0000000000013a1e      0x2dc C:/devkitPro/libctru/lib\libctru.a(rbtree_rotate.o)
 .debug_line    0x0000000000013cfa      0x772 C:/devkitPro/libctru/lib\libctru.a(rbtree_remove.o)
 .debug_line    0x000000000001446c      0x229 C:/devkitPro/libctru/lib\libctru.a(rbtree_find.o)
 .debug_line    0x0000000000014695      0x326 C:/devkitPro/libctru/lib\libctru.a(allocateHeaps.o)
 .debug_line    0x00000000000149bb      0x10b C:/devkitPro/libctru/lib\libctru.a(ctru_init.o)
 .debug_line    0x0000000000014ac6      0x2db C:/devkitPro/libctru/lib\libctru.a(initArgv.o)
 .debug_line    0x0000000000014da1      0x7c0 C:/devkitPro/libctru/lib\libctru.a(svc.o)
 .debug_line    0x0000000000015561       0xb1 C:/devkitPro/libctru/lib\libctru.a(stack_adjust.o)
 .debug_line    0x0000000000015612     0x1559 C:/devkitPro/libctru/lib\libctru.a(synchronization.o)
 .debug_line    0x0000000000016b6b      0xdd4 C:/devkitPro/libctru/lib\libctru.a(srv.o)
 .debug_line    0x000000000001793f      0x5fd C:/devkitPro/libctru/lib\libctru.a(thread.o)
 .debug_line    0x0000000000017f3c      0x2c5 C:/devkitPro/libctru/lib\libctru.a(mappable.o)
 .debug_line    0x0000000000018201      0x7a1 C:/devkitPro/libctru/lib\libctru.a(irrst.o)
 .debug_line    0x00000000000189a2      0x640 C:/devkitPro/libctru/lib\libctru.a(srvpm.o)
 .debug_line    0x0000000000018fe2      0x28c C:/devkitPro/libctru/lib\libctru.a(rbtree_iterator.o)
 .debug_line    0x000000000001926e      0x178 C:/devkitPro/libctru/lib\libctru.a(appInit.o)
 .debug_line    0x00000000000193e6      0x439 C:/devkitPro/libctru/lib\libctru.a(syscalls.o)
 .debug_line    0x000000000001981f      0x177 C:/devkitPro/libctru/lib\libctru.a(appExit.o)
 .debug_line    0x0000000000019996      0x1a2 C:/devkitPro/libctru/lib\libctru.a(ctru_exit.o)
 .debug_line    0x0000000000019b38      0x245 C:/devkitPro/libctru/lib\libctru.a(env.o)
 .debug_line    0x0000000000019d7d     0x1b36 C:/devkitPro/libctru/lib\libctru.a(archive_dev.o)
 .debug_line    0x000000000001b8b3     0x65af C:/devkitPro/libctru/lib\libctru.a(fs.o)
 .debug_line    0x0000000000021e62      0x2b1 C:/devkitPro/libctru/lib\libctru.a(utf16_to_utf8.o)
 .debug_line    0x0000000000022113      0x18e C:/devkitPro/libctru/lib\libctru.a(decode_utf16.o)
 .debug_line    0x00000000000222a1      0x26d C:/devkitPro/libctru/lib\libctru.a(decode_utf8.o)
 .debug_line    0x000000000002250e      0x287 C:/devkitPro/libctru/lib\libctru.a(utf8_to_utf16.o)
 .debug_line    0x0000000000022795       0x84 C:/devkitPro/libctru/lib\libctru.a(readtp.o)
 .debug_line    0x0000000000022819      0x109 C:/devkitPro/libctru/lib\libctru.a(path_buf.o)
 .debug_line    0x0000000000022922      0x187 C:/devkitPro/libctru/lib\libctru.a(encode_utf16.o)
 .debug_line    0x0000000000022aa9      0x21f C:/devkitPro/libctru/lib\libctru.a(encode_utf8.o)

.debug_frame    0x0000000000000000     0x4b84
 *(.debug_frame)
 .debug_frame   0x0000000000000000       0x40 main.o
 .debug_frame   0x0000000000000040      0x1e8 C:/devkitPro/libctru/lib\libcitro3d.a(base.o)
 .debug_frame   0x0000000000000228      0x394 C:/devkitPro/libctru/lib\libcitro3d.a(renderqueue.o)
 .debug_frame   0x00000000000005bc      0x12c C:/devkitPro/libctru/lib\libcitro3d.a(texture.o)
 .debug_frame   0x00000000000006e8       0xdc C:/devkitPro/libctru/lib\libcitro3d.a(framebuffer.o)
 .debug_frame   0x00000000000007c4       0x78 C:/devkitPro/libctru/lib\libcitro3d.a(texenv.o)
 .debug_frame   0x000000000000083c       0x9c C:/devkitPro/libctru/lib\libcitro3d.a(buffers.o)
 .debug_frame   0x00000000000008d8       0x3c C:/devkitPro/libctru/lib\libcitro3d.a(drawArrays.o)
 .debug_frame   0x0000000000000914      0x134 C:/devkitPro/libctru/lib\libcitro3d.a(effect.o)
 .debug_frame   0x0000000000000a48       0xa8 C:/devkitPro/libctru/lib\libcitro3d.a(attribs.o)
 .debug_frame   0x0000000000000af0       0x84 C:/devkitPro/libctru/lib\libcitro3d.a(immediate.o)
 .debug_frame   0x0000000000000b74       0x90 C:/devkitPro/libctru/lib\libcitro3d.a(uniforms.o)
 .debug_frame   0x0000000000000c04       0x50 C:/devkitPro/libctru/lib\libcitro3d.a(mtx_orthotilt.o)
 .debug_frame   0x0000000000000c54       0xd0 C:/devkitPro/libctru/lib\libctru.a(vram.o)
 .debug_frame   0x0000000000000d24       0xd4 C:/devkitPro/libctru/lib\libctru.a(linear.o)
 .debug_frame   0x0000000000000df8       0xa4 C:/devkitPro/libctru/lib\libctru.a(mem_pool.o)
 .debug_frame   0x0000000000000e9c       0xec C:/devkitPro/libctru/lib\libctru.a(os.o)
 .debug_frame   0x0000000000000f88      0x1dc C:/devkitPro/libctru/lib\libctru.a(gfx.o)
 .debug_frame   0x0000000000001164      0x1b8 C:/devkitPro/libctru/lib\libctru.a(shaderProgram.o)
 .debug_frame   0x000000000000131c       0xa8 C:/devkitPro/libctru/lib\libctru.a(shbin.o)
 .debug_frame   0x00000000000013c4      0x100 C:/devkitPro/libctru/lib\libctru.a(gx.o)
 .debug_frame   0x00000000000014c4      0x100 C:/devkitPro/libctru/lib\libctru.a(gxqueue.o)
 .debug_frame   0x00000000000015c4       0xdc C:/devkitPro/libctru/lib\libctru.a(gpu.o)
 .debug_frame   0x00000000000016a0      0x334 C:/devkitPro/libctru/lib\libctru.a(gspgpu.o)
 .debug_frame   0x00000000000019d4      0x8d8 C:/devkitPro/libctru/lib\libctru.a(apt.o)
 .debug_frame   0x00000000000022ac      0x258 C:/devkitPro/libctru/lib\libctru.a(hid.o)
 .debug_frame   0x0000000000002504      0x180 C:/devkitPro/libctru/lib\libctru.a(ptmsysm.o)
 .debug_frame   0x0000000000002684       0x20 C:/devkitPro/libctru/lib\libctru.a(rbtree_init.o)
 .debug_frame   0x00000000000026a4       0x54 C:/devkitPro/libctru/lib\libctru.a(rbtree_insert.o)
 .debug_frame   0x00000000000026f8       0x2c C:/devkitPro/libctru/lib\libctru.a(rbtree_rotate.o)
 .debug_frame   0x0000000000002724       0x50 C:/devkitPro/libctru/lib\libctru.a(rbtree_remove.o)
 .debug_frame   0x0000000000002774       0x30 C:/devkitPro/libctru/lib\libctru.a(rbtree_find.o)
 .debug_frame   0x00000000000027a4       0x38 C:/devkitPro/libctru/lib\libctru.a(allocateHeaps.o)
 .debug_frame   0x00000000000027dc       0x2c C:/devkitPro/libctru/lib\libctru.a(ctru_init.o)
 .debug_frame   0x0000000000002808       0x2c C:/devkitPro/libctru/lib\libctru.a(initArgv.o)
 .debug_frame   0x0000000000002834      0x640 C:/devkitPro/libctru/lib\libctru.a(svc.o)
 .debug_frame   0x0000000000002e74       0x30 C:/devkitPro/libctru/lib\libctru.a(stack_adjust.o)
 .debug_frame   0x0000000000002ea4      0x2c8 C:/devkitPro/libctru/lib\libctru.a(synchronization.o)
 .debug_frame   0x000000000000316c      0x254 C:/devkitPro/libctru/lib\libctru.a(srv.o)
 .debug_frame   0x00000000000033c0       0xf0 C:/devkitPro/libctru/lib\libctru.a(thread.o)
 .debug_frame   0x00000000000034b0       0x70 C:/devkitPro/libctru/lib\libctru.a(mappable.o)
 .debug_frame   0x0000000000003520      0x104 C:/devkitPro/libctru/lib\libctru.a(irrst.o)
 .debug_frame   0x0000000000003624       0xc4 C:/devkitPro/libctru/lib\libctru.a(srvpm.o)
 .debug_frame   0x00000000000036e8       0x30 C:/devkitPro/libctru/lib\libctru.a(rbtree_iterator.o)
 .debug_frame   0x0000000000003718       0x28 C:/devkitPro/libctru/lib\libctru.a(appInit.o)
 .debug_frame   0x0000000000003740       0x5c C:/devkitPro/libctru/lib\libctru.a(syscalls.o)
 .debug_frame   0x000000000000379c       0x2c C:/devkitPro/libctru/lib\libctru.a(appExit.o)
 .debug_frame   0x00000000000037c8       0x28 C:/devkitPro/libctru/lib\libctru.a(ctru_exit.o)
 .debug_frame   0x00000000000037f0       0x4c C:/devkitPro/libctru/lib\libctru.a(env.o)
 .debug_frame   0x000000000000383c      0x530 C:/devkitPro/libctru/lib\libctru.a(archive_dev.o)
 .debug_frame   0x0000000000003d6c      0xce8 C:/devkitPro/libctru/lib\libctru.a(fs.o)
 .debug_frame   0x0000000000004a54       0x3c C:/devkitPro/libctru/lib\libctru.a(utf16_to_utf8.o)
 .debug_frame   0x0000000000004a90       0x28 C:/devkitPro/libctru/lib\libctru.a(decode_utf16.o)
 .debug_frame   0x0000000000004ab8       0x30 C:/devkitPro/libctru/lib\libctru.a(decode_utf8.o)
 .debug_frame   0x0000000000004ae8       0x3c C:/devkitPro/libctru/lib\libctru.a(utf8_to_utf16.o)
 .debug_frame   0x0000000000004b24       0x20 C:/devkitPro/libctru/lib\libctru.a(readtp.o)
 .debug_frame   0x0000000000004b44       0x20 C:/devkitPro/libctru/lib\libctru.a(encode_utf16.o)
 .debug_frame   0x0000000000004b64       0x20 C:/devkitPro/libctru/lib\libctru.a(encode_utf8.o)

.debug_str      0x0000000000000000     0xaca3
 *(.debug_str)
 .debug_str     0x0000000000000000      0xfec main.o
                                       0x10ba (size before relaxing)
 .debug_str     0x0000000000000fec     0x120a C:/devkitPro/libctru/lib\libcitro3d.a(base.o)
                                       0x1b46 (size before relaxing)
 .debug_str     0x00000000000021f6      0x77e C:/devkitPro/libctru/lib\libcitro3d.a(renderqueue.o)
                                       0x1975 (size before relaxing)
 .debug_str     0x0000000000002974      0x2f7 C:/devkitPro/libctru/lib\libcitro3d.a(texture.o)
                                       0x13ce (size before relaxing)
 .debug_str     0x0000000000002c6b       0xb0 C:/devkitPro/libctru/lib\libcitro3d.a(framebuffer.o)
                                       0x14ff (size before relaxing)
 .debug_str     0x0000000000002d1b       0x8b C:/devkitPro/libctru/lib\libcitro3d.a(texenv.o)
                                       0x11f5 (size before relaxing)
 .debug_str     0x0000000000002da6       0x7d C:/devkitPro/libctru/lib\libcitro3d.a(buffers.o)
                                       0x10da (size before relaxing)
 .debug_str     0x0000000000002e23       0x6a C:/devkitPro/libctru/lib\libcitro3d.a(drawArrays.o)
                                       0x10b5 (size before relaxing)
 .debug_str     0x0000000000002e8d      0x179 C:/devkitPro/libctru/lib\libcitro3d.a(effect.o)
                                       0x1540 (size before relaxing)
 .debug_str     0x0000000000003006       0x69 C:/devkitPro/libctru/lib\libcitro3d.a(attribs.o)
                                       0x10e4 (size before relaxing)
 .debug_str     0x000000000000306f       0x78 C:/devkitPro/libctru/lib\libcitro3d.a(immediate.o)
                                       0x10e9 (size before relaxing)
 .debug_str     0x00000000000030e7       0xd1 C:/devkitPro/libctru/lib\libcitro3d.a(uniforms.o)
                                        0x76c (size before relaxing)
 .debug_str     0x00000000000031b8       0x6f C:/devkitPro/libctru/lib\libcitro3d.a(mtx_orthotilt.o)
                                        0x24d (size before relaxing)
 .debug_str     0x0000000000003227      0xf45 C:/devkitPro/libctru/lib\libctru.a(vram.o)
                                       0x10e0 (size before relaxing)
 .debug_str     0x000000000000416c       0xac C:/devkitPro/libctru/lib\libctru.a(linear.o)
                                        0x77d (size before relaxing)
 .debug_str     0x0000000000004218       0x93 C:/devkitPro/libctru/lib\libctru.a(mem_pool.o)
                                        0x612 (size before relaxing)
 .debug_str     0x00000000000042ab      0x7b6 C:/devkitPro/libctru/lib\libctru.a(os.o)
                                        0x9e0 (size before relaxing)
 .debug_str     0x0000000000004a61      0x335 C:/devkitPro/libctru/lib\libctru.a(gfx.o)
                                        0x665 (size before relaxing)
 .debug_str     0x0000000000004d96      0x239 C:/devkitPro/libctru/lib\libctru.a(shaderProgram.o)
                                        0x821 (size before relaxing)
 .debug_str     0x0000000000004fcf      0x12d C:/devkitPro/libctru/lib\libctru.a(shbin.o)
                                        0x572 (size before relaxing)
 .debug_str     0x00000000000050fc       0xd5 C:/devkitPro/libctru/lib\libctru.a(gx.o)
                                        0x3f2 (size before relaxing)
 .debug_str     0x00000000000051d1       0xfd C:/devkitPro/libctru/lib\libctru.a(gxqueue.o)
                                        0x512 (size before relaxing)
 .debug_str     0x00000000000052ce       0xb6 C:/devkitPro/libctru/lib\libctru.a(gpu.o)
                                        0x3ab (size before relaxing)
 .debug_str     0x0000000000005384      0x776 C:/devkitPro/libctru/lib\libctru.a(gspgpu.o)
                                        0xbce (size before relaxing)
 .debug_str     0x0000000000005afa     0x12cc C:/devkitPro/libctru/lib\libctru.a(apt.o)
                                       0x1a3b (size before relaxing)
 .debug_str     0x0000000000006dc6      0x3f3 C:/devkitPro/libctru/lib\libctru.a(hid.o)
                                        0x900 (size before relaxing)
 .debug_str     0x00000000000071b9      0x1f7 C:/devkitPro/libctru/lib\libctru.a(ptmsysm.o)
                                        0x52e (size before relaxing)
 .debug_str     0x00000000000073b0       0x5f C:/devkitPro/libctru/lib\libctru.a(rbtree_init.o)
                                        0x26d (size before relaxing)
 .debug_str     0x000000000000740f      0x108 C:/devkitPro/libctru/lib\libctru.a(rbtree_insert.o)
                                        0x32f (size before relaxing)
 .debug_str     0x0000000000007517       0x61 C:/devkitPro/libctru/lib\libctru.a(rbtree_rotate.o)
                                        0x2c4 (size before relaxing)
 .debug_str     0x0000000000007578       0xaf C:/devkitPro/libctru/lib\libctru.a(rbtree_remove.o)
                                        0x34d (size before relaxing)
 .debug_str     0x0000000000007627       0x5f C:/devkitPro/libctru/lib\libctru.a(rbtree_find.o)
                                        0x277 (size before relaxing)
 .debug_str     0x0000000000007686      0x21e C:/devkitPro/libctru/lib\libctru.a(allocateHeaps.o)
                                        0x5b2 (size before relaxing)
 .debug_str     0x00000000000078a4       0xb7 C:/devkitPro/libctru/lib\libctru.a(ctru_init.o)
                                        0x274 (size before relaxing)
 .debug_str     0x000000000000795b       0xad C:/devkitPro/libctru/lib\libctru.a(initArgv.o)
                                        0x28a (size before relaxing)
 .debug_str     0x0000000000007a08       0x57 C:/devkitPro/libctru/lib\libctru.a(svc.o)
                                         0x9d (size before relaxing)
 .debug_str     0x0000000000007a5f       0x5b C:/devkitPro/libctru/lib\libctru.a(stack_adjust.o)
                                         0xad (size before relaxing)
 .debug_str     0x0000000000007aba      0x540 C:/devkitPro/libctru/lib\libctru.a(synchronization.o)
                                        0x95d (size before relaxing)
 .debug_str     0x0000000000007ffa      0x2e9 C:/devkitPro/libctru/lib\libctru.a(srv.o)
                                        0xb34 (size before relaxing)
 .debug_str     0x00000000000082e3      0x18b C:/devkitPro/libctru/lib\libctru.a(thread.o)
                                        0x8ed (size before relaxing)
 .debug_str     0x000000000000846e      0x198 C:/devkitPro/libctru/lib\libctru.a(mappable.o)
                                        0x383 (size before relaxing)
 .debug_str     0x0000000000008606      0x112 C:/devkitPro/libctru/lib\libctru.a(irrst.o)
                                        0x559 (size before relaxing)
 .debug_str     0x0000000000008718      0x10e C:/devkitPro/libctru/lib\libctru.a(srvpm.o)
                                        0x55a (size before relaxing)
 .debug_str     0x0000000000008826       0x7f C:/devkitPro/libctru/lib\libctru.a(rbtree_iterator.o)
                                        0x277 (size before relaxing)
 .debug_str     0x00000000000088a5       0x84 C:/devkitPro/libctru/lib\libctru.a(appInit.o)
                                        0x223 (size before relaxing)
 .debug_str     0x0000000000008929      0x1bd C:/devkitPro/libctru/lib\libctru.a(syscalls.o)
                                        0x960 (size before relaxing)
 .debug_str     0x0000000000008ae6       0x85 C:/devkitPro/libctru/lib\libctru.a(appExit.o)
                                        0x224 (size before relaxing)
 .debug_str     0x0000000000008b6b       0x88 C:/devkitPro/libctru/lib\libctru.a(ctru_exit.o)
                                        0x35b (size before relaxing)
 .debug_str     0x0000000000008bf3       0x7b C:/devkitPro/libctru/lib\libctru.a(env.o)
                                        0x265 (size before relaxing)
 .debug_str     0x0000000000008c6e      0xcfe C:/devkitPro/libctru/lib\libctru.a(archive_dev.o)
                                       0x14f2 (size before relaxing)
 .debug_str     0x000000000000996c     0x101e C:/devkitPro/libctru/lib\libctru.a(fs.o)
                                       0x1d31 (size before relaxing)
 .debug_str     0x000000000000a98a       0x7f C:/devkitPro/libctru/lib\libctru.a(utf16_to_utf8.o)
                                        0x271 (size before relaxing)
 .debug_str     0x000000000000aa09       0x69 C:/devkitPro/libctru/lib\libctru.a(decode_utf16.o)
                                        0x229 (size before relaxing)
 .debug_str     0x000000000000aa72       0x68 C:/devkitPro/libctru/lib\libctru.a(decode_utf8.o)
                                        0x231 (size before relaxing)
 .debug_str     0x000000000000aada       0x6b C:/devkitPro/libctru/lib\libctru.a(utf8_to_utf16.o)
                                        0x271 (size before relaxing)
 .debug_str     0x000000000000ab45       0x55 C:/devkitPro/libctru/lib\libctru.a(readtp.o)
                                         0xa7 (size before relaxing)
 .debug_str     0x000000000000ab9a       0x50 C:/devkitPro/libctru/lib\libctru.a(path_buf.o)
                                        0x207 (size before relaxing)
 .debug_str     0x000000000000abea       0x5d C:/devkitPro/libctru/lib\libctru.a(encode_utf16.o)
                                        0x21d (size before relaxing)
 .debug_str     0x000000000000ac47       0x5c C:/devkitPro/libctru/lib\libctru.a(encode_utf8.o)
                                        0x219 (size before relaxing)

.debug_loc      0x0000000000000000    0x20cde
 *(.debug_loc)
 .debug_loc     0x0000000000000000      0x267 main.o
 .debug_loc     0x0000000000000267      0x9a5 C:/devkitPro/libctru/lib\libcitro3d.a(base.o)
 .debug_loc     0x0000000000000c0c     0x17c2 C:/devkitPro/libctru/lib\libcitro3d.a(renderqueue.o)
 .debug_loc     0x00000000000023ce     0x1284 C:/devkitPro/libctru/lib\libcitro3d.a(texture.o)
 .debug_loc     0x0000000000003652      0x70d C:/devkitPro/libctru/lib\libcitro3d.a(framebuffer.o)
 .debug_loc     0x0000000000003d5f      0x1bd C:/devkitPro/libctru/lib\libcitro3d.a(texenv.o)
 .debug_loc     0x0000000000003f1c      0x274 C:/devkitPro/libctru/lib\libcitro3d.a(buffers.o)
 .debug_loc     0x0000000000004190      0x29f C:/devkitPro/libctru/lib\libcitro3d.a(drawArrays.o)
 .debug_loc     0x000000000000442f      0x572 C:/devkitPro/libctru/lib\libcitro3d.a(effect.o)
 .debug_loc     0x00000000000049a1      0x27c C:/devkitPro/libctru/lib\libcitro3d.a(attribs.o)
 .debug_loc     0x0000000000004c1d      0x37e C:/devkitPro/libctru/lib\libcitro3d.a(immediate.o)
 .debug_loc     0x0000000000004f9b      0x2f4 C:/devkitPro/libctru/lib\libcitro3d.a(uniforms.o)
 .debug_loc     0x000000000000528f      0x199 C:/devkitPro/libctru/lib\libcitro3d.a(mtx_orthotilt.o)
 .debug_loc     0x0000000000005428      0x43e C:/devkitPro/libctru/lib\libctru.a(vram.o)
 .debug_loc     0x0000000000005866      0x438 C:/devkitPro/libctru/lib\libctru.a(linear.o)
 .debug_loc     0x0000000000005c9e      0x9fa C:/devkitPro/libctru/lib\libctru.a(mem_pool.o)
 .debug_loc     0x0000000000006698      0x3b3 C:/devkitPro/libctru/lib\libctru.a(os.o)
 .debug_loc     0x0000000000006a4b      0x75c C:/devkitPro/libctru/lib\libctru.a(gfx.o)
 .debug_loc     0x00000000000071a7     0x16bc C:/devkitPro/libctru/lib\libctru.a(shaderProgram.o)
 .debug_loc     0x0000000000008863      0x595 C:/devkitPro/libctru/lib\libctru.a(shbin.o)
 .debug_loc     0x0000000000008df8      0x63e C:/devkitPro/libctru/lib\libctru.a(gx.o)
 .debug_loc     0x0000000000009436      0x2cc C:/devkitPro/libctru/lib\libctru.a(gxqueue.o)
 .debug_loc     0x0000000000009702      0x508 C:/devkitPro/libctru/lib\libctru.a(gpu.o)
 .debug_loc     0x0000000000009c0a     0x4ab6 C:/devkitPro/libctru/lib\libctru.a(gspgpu.o)
 .debug_loc     0x000000000000e6c0     0x2dfe C:/devkitPro/libctru/lib\libctru.a(apt.o)
 .debug_loc     0x00000000000114be      0xb9d C:/devkitPro/libctru/lib\libctru.a(hid.o)
 .debug_loc     0x000000000001205b      0x4e1 C:/devkitPro/libctru/lib\libctru.a(ptmsysm.o)
 .debug_loc     0x000000000001253c      0x5d4 C:/devkitPro/libctru/lib\libctru.a(rbtree_insert.o)
 .debug_loc     0x0000000000012b10      0x146 C:/devkitPro/libctru/lib\libctru.a(rbtree_rotate.o)
 .debug_loc     0x0000000000012c56      0x691 C:/devkitPro/libctru/lib\libctru.a(rbtree_remove.o)
 .debug_loc     0x00000000000132e7      0x141 C:/devkitPro/libctru/lib\libctru.a(rbtree_find.o)
 .debug_loc     0x0000000000013428       0x78 C:/devkitPro/libctru/lib\libctru.a(allocateHeaps.o)
 .debug_loc     0x00000000000134a0       0x25 C:/devkitPro/libctru/lib\libctru.a(ctru_init.o)
 .debug_loc     0x00000000000134c5       0xf8 C:/devkitPro/libctru/lib\libctru.a(initArgv.o)
 .debug_loc     0x00000000000135bd     0x2290 C:/devkitPro/libctru/lib\libctru.a(synchronization.o)
 .debug_loc     0x000000000001584d      0xa65 C:/devkitPro/libctru/lib\libctru.a(srv.o)
 .debug_loc     0x00000000000162b2      0x503 C:/devkitPro/libctru/lib\libctru.a(thread.o)
 .debug_loc     0x00000000000167b5      0x138 C:/devkitPro/libctru/lib\libctru.a(mappable.o)
 .debug_loc     0x00000000000168ed      0x5ae C:/devkitPro/libctru/lib\libctru.a(irrst.o)
 .debug_loc     0x0000000000016e9b      0x374 C:/devkitPro/libctru/lib\libctru.a(srvpm.o)
 .debug_loc     0x000000000001720f      0x3d4 C:/devkitPro/libctru/lib\libctru.a(rbtree_iterator.o)
 .debug_loc     0x00000000000175e3       0x9e C:/devkitPro/libctru/lib\libctru.a(syscalls.o)
 .debug_loc     0x0000000000017681       0x25 C:/devkitPro/libctru/lib\libctru.a(ctru_exit.o)
 .debug_loc     0x00000000000176a6      0x15c C:/devkitPro/libctru/lib\libctru.a(env.o)
 .debug_loc     0x0000000000017802     0x22a5 C:/devkitPro/libctru/lib\libctru.a(archive_dev.o)
 .debug_loc     0x0000000000019aa7     0x6ac3 C:/devkitPro/libctru/lib\libctru.a(fs.o)
 .debug_loc     0x000000000002056a      0x10c C:/devkitPro/libctru/lib\libctru.a(utf16_to_utf8.o)
 .debug_loc     0x0000000000020676       0xec C:/devkitPro/libctru/lib\libctru.a(decode_utf16.o)
 .debug_loc     0x0000000000020762      0x1e8 C:/devkitPro/libctru/lib\libctru.a(decode_utf8.o)
 .debug_loc     0x000000000002094a       0xe3 C:/devkitPro/libctru/lib\libctru.a(utf8_to_utf16.o)
 .debug_loc     0x0000000000020a2d       0xd1 C:/devkitPro/libctru/lib\libctru.a(encode_utf16.o)
 .debug_loc     0x0000000000020afe      0x1e0 C:/devkitPro/libctru/lib\libctru.a(encode_utf8.o)

.debug_macinfo
 *(.debug_macinfo)
LOAD c:/devkitpro/devkitarm/bin/../lib/gcc/arm-none-eabi/10.2.0/../../../../arm-none-eabi/lib/armv6k/fpu/3dsx_crt0.o
LOAD c:/devkitpro/devkitarm/bin/../lib/gcc/arm-none-eabi/10.2.0/armv6k/fpu/crti.o
LOAD c:/devkitpro/devkitarm/bin/../lib/gcc/arm-none-eabi/10.2.0/armv6k/fpu/crtbegin.o
LOAD vshader.shbin.o
LOAD main.o
LOAD C:/devkitPro/libctru/lib\libcitro3d.a
LOAD C:/devkitPro/libctru/lib\libctru.a
LOAD c:/devkitpro/devkitarm/bin/../lib/gcc/arm-none-eabi/10.2.0/../../../../arm-none-eabi/lib/armv6k/fpu\libm.a
START GROUP
LOAD c:/devkitpro/devkitarm/bin/../lib/gcc/arm-none-eabi/10.2.0/armv6k/fpu\libgcc.a
LOAD c:/devkitpro/devkitarm/bin/../lib/gcc/arm-none-eabi/10.2.0/../../../../arm-none-eabi/lib/armv6k/fpu\libg.a
LOAD c:/devkitpro/devkitarm/bin/../lib/gcc/arm-none-eabi/10.2.0/../../../../arm-none-eabi/lib/armv6k/fpu\libc.a
LOAD c:/devkitpro/devkitarm/bin/../lib/gcc/arm-none-eabi/10.2.0/../../../../arm-none-eabi/lib/armv6k/fpu\libsysbase.a
END GROUP
LOAD c:/devkitpro/devkitarm/bin/../lib/gcc/arm-none-eabi/10.2.0/armv6k/fpu/crtend.o
LOAD c:/devkitpro/devkitarm/bin/../lib/gcc/arm-none-eabi/10.2.0/armv6k/fpu/crtn.o
OUTPUT(C:/Users/alexa/Documents/AOV/desarrollo_3DS/graphics/gpu/simple_tri/simple_tri.elf elf32-littlearm)
LOAD linker stubs

.ARM.attributes
                0x0000000000000000       0x30
 .ARM.attributes
                0x0000000000000000       0x1e c:/devkitpro/devkitarm/bin/../lib/gcc/arm-none-eabi/10.2.0/../../../../arm-none-eabi/lib/armv6k/fpu/3dsx_crt0.o
 .ARM.attributes
                0x000000000000001e       0x1c c:/devkitpro/devkitarm/bin/../lib/gcc/arm-none-eabi/10.2.0/armv6k/fpu/crti.o
 .ARM.attributes
                0x000000000000003a       0x30 c:/devkitpro/devkitarm/bin/../lib/gcc/arm-none-eabi/10.2.0/armv6k/fpu/crtbegin.o
 .ARM.attributes
                0x000000000000006a       0x14 vshader.shbin.o
 .ARM.attributes
                0x000000000000007e       0x30 main.o
 .ARM.attributes
                0x00000000000000ae       0x30 C:/devkitPro/libctru/lib\libcitro3d.a(base.o)
 .ARM.attributes
                0x00000000000000de       0x30 C:/devkitPro/libctru/lib\libcitro3d.a(renderqueue.o)
 .ARM.attributes
                0x000000000000010e       0x30 C:/devkitPro/libctru/lib\libcitro3d.a(texture.o)
 .ARM.attributes
                0x000000000000013e       0x30 C:/devkitPro/libctru/lib\libcitro3d.a(framebuffer.o)
 .ARM.attributes
                0x000000000000016e       0x30 C:/devkitPro/libctru/lib\libcitro3d.a(texenv.o)
 .ARM.attributes
                0x000000000000019e       0x30 C:/devkitPro/libctru/lib\libcitro3d.a(buffers.o)
 .ARM.attributes
                0x00000000000001ce       0x30 C:/devkitPro/libctru/lib\libcitro3d.a(drawArrays.o)
 .ARM.attributes
                0x00000000000001fe       0x30 C:/devkitPro/libctru/lib\libcitro3d.a(effect.o)
 .ARM.attributes
                0x000000000000022e       0x30 C:/devkitPro/libctru/lib\libcitro3d.a(attribs.o)
 .ARM.attributes
                0x000000000000025e       0x30 C:/devkitPro/libctru/lib\libcitro3d.a(immediate.o)
 .ARM.attributes
                0x000000000000028e       0x30 C:/devkitPro/libctru/lib\libcitro3d.a(uniforms.o)
 .ARM.attributes
                0x00000000000002be       0x30 C:/devkitPro/libctru/lib\libcitro3d.a(mtx_orthotilt.o)
 .ARM.attributes
                0x00000000000002ee       0x30 C:/devkitPro/libctru/lib\libctru.a(vram.o)
 .ARM.attributes
                0x000000000000031e       0x30 C:/devkitPro/libctru/lib\libctru.a(linear.o)
 .ARM.attributes
                0x000000000000034e       0x30 C:/devkitPro/libctru/lib\libctru.a(mem_pool.o)
 .ARM.attributes
                0x000000000000037e       0x30 C:/devkitPro/libctru/lib\libctru.a(os.o)
 .ARM.attributes
                0x00000000000003ae       0x30 C:/devkitPro/libctru/lib\libctru.a(gfx.o)
 .ARM.attributes
                0x00000000000003de       0x30 C:/devkitPro/libctru/lib\libctru.a(shaderProgram.o)
 .ARM.attributes
                0x000000000000040e       0x30 C:/devkitPro/libctru/lib\libctru.a(shbin.o)
 .ARM.attributes
                0x000000000000043e       0x30 C:/devkitPro/libctru/lib\libctru.a(gx.o)
 .ARM.attributes
                0x000000000000046e       0x30 C:/devkitPro/libctru/lib\libctru.a(gxqueue.o)
 .ARM.attributes
                0x000000000000049e       0x30 C:/devkitPro/libctru/lib\libctru.a(gpu.o)
 .ARM.attributes
                0x00000000000004ce       0x30 C:/devkitPro/libctru/lib\libctru.a(gspgpu.o)
 .ARM.attributes
                0x00000000000004fe       0x30 C:/devkitPro/libctru/lib\libctru.a(apt.o)
 .ARM.attributes
                0x000000000000052e       0x30 C:/devkitPro/libctru/lib\libctru.a(hid.o)
 .ARM.attributes
                0x000000000000055e       0x30 C:/devkitPro/libctru/lib\libctru.a(ptmsysm.o)
 .ARM.attributes
                0x000000000000058e       0x30 C:/devkitPro/libctru/lib\libctru.a(rbtree_init.o)
 .ARM.attributes
                0x00000000000005be       0x30 C:/devkitPro/libctru/lib\libctru.a(rbtree_insert.o)
 .ARM.attributes
                0x00000000000005ee       0x30 C:/devkitPro/libctru/lib\libctru.a(rbtree_rotate.o)
 .ARM.attributes
                0x000000000000061e       0x30 C:/devkitPro/libctru/lib\libctru.a(rbtree_remove.o)
 .ARM.attributes
                0x000000000000064e       0x30 C:/devkitPro/libctru/lib\libctru.a(rbtree_find.o)
 .ARM.attributes
                0x000000000000067e       0x30 C:/devkitPro/libctru/lib\libctru.a(allocateHeaps.o)
 .ARM.attributes
                0x00000000000006ae       0x30 C:/devkitPro/libctru/lib\libctru.a(ctru_init.o)
 .ARM.attributes
                0x00000000000006de       0x30 C:/devkitPro/libctru/lib\libctru.a(initArgv.o)
 .ARM.attributes
                0x000000000000070e       0x1a C:/devkitPro/libctru/lib\libctru.a(svc.o)
 .ARM.attributes
                0x0000000000000728       0x1a C:/devkitPro/libctru/lib\libctru.a(stack_adjust.o)
 .ARM.attributes
                0x0000000000000742       0x30 C:/devkitPro/libctru/lib\libctru.a(synchronization.o)
 .ARM.attributes
                0x0000000000000772       0x30 C:/devkitPro/libctru/lib\libctru.a(srv.o)
 .ARM.attributes
                0x00000000000007a2       0x30 C:/devkitPro/libctru/lib\libctru.a(thread.o)
 .ARM.attributes
                0x00000000000007d2       0x30 C:/devkitPro/libctru/lib\libctru.a(mappable.o)
 .ARM.attributes
                0x0000000000000802       0x30 C:/devkitPro/libctru/lib\libctru.a(irrst.o)
 .ARM.attributes
                0x0000000000000832       0x30 C:/devkitPro/libctru/lib\libctru.a(srvpm.o)
 .ARM.attributes
                0x0000000000000862       0x30 C:/devkitPro/libctru/lib\libctru.a(rbtree_iterator.o)
 .ARM.attributes
                0x0000000000000892       0x30 C:/devkitPro/libctru/lib\libctru.a(appInit.o)
 .ARM.attributes
                0x00000000000008c2       0x30 C:/devkitPro/libctru/lib\libctru.a(syscalls.o)
 .ARM.attributes
                0x00000000000008f2       0x30 C:/devkitPro/libctru/lib\libctru.a(appExit.o)
 .ARM.attributes
                0x0000000000000922       0x30 C:/devkitPro/libctru/lib\libctru.a(ctru_exit.o)
 .ARM.attributes
                0x0000000000000952       0x30 C:/devkitPro/libctru/lib\libctru.a(env.o)
 .ARM.attributes
                0x0000000000000982       0x30 C:/devkitPro/libctru/lib\libctru.a(archive_dev.o)
 .ARM.attributes
                0x00000000000009b2       0x30 C:/devkitPro/libctru/lib\libctru.a(fs.o)
 .ARM.attributes
                0x00000000000009e2       0x30 C:/devkitPro/libctru/lib\libctru.a(utf16_to_utf8.o)
 .ARM.attributes
                0x0000000000000a12       0x30 C:/devkitPro/libctru/lib\libctru.a(decode_utf16.o)
 .ARM.attributes
                0x0000000000000a42       0x30 C:/devkitPro/libctru/lib\libctru.a(decode_utf8.o)
 .ARM.attributes
                0x0000000000000a72       0x30 C:/devkitPro/libctru/lib\libctru.a(utf8_to_utf16.o)
 .ARM.attributes
                0x0000000000000aa2       0x1a C:/devkitPro/libctru/lib\libctru.a(readtp.o)
 .ARM.attributes
                0x0000000000000abc       0x2e C:/devkitPro/libctru/lib\libctru.a(path_buf.o)
 .ARM.attributes
                0x0000000000000aea       0x30 C:/devkitPro/libctru/lib\libctru.a(encode_utf16.o)
 .ARM.attributes
                0x0000000000000b1a       0x30 C:/devkitPro/libctru/lib\libctru.a(encode_utf8.o)
 .ARM.attributes
                0x0000000000000b4a       0x1c c:/devkitpro/devkitarm/bin/../lib/gcc/arm-none-eabi/10.2.0/armv6k/fpu\libgcc.a(_aeabi_ldivmod.o)
 .ARM.attributes
                0x0000000000000b66       0x30 c:/devkitpro/devkitarm/bin/../lib/gcc/arm-none-eabi/10.2.0/armv6k/fpu\libgcc.a(_udivmoddi4.o)
 .ARM.attributes
                0x0000000000000b96       0x1c c:/devkitpro/devkitarm/bin/../lib/gcc/arm-none-eabi/10.2.0/armv6k/fpu\libgcc.a(_dvmd_tls.o)
 .ARM.attributes
                0x0000000000000bb2       0x30 c:/devkitpro/devkitarm/bin/../lib/gcc/arm-none-eabi/10.2.0/../../../../arm-none-eabi/lib/armv6k/fpu\libg.a(lib_a-bsearch.o)
 .ARM.attributes
                0x0000000000000be2       0x30 c:/devkitpro/devkitarm/bin/../lib/gcc/arm-none-eabi/10.2.0/../../../../arm-none-eabi/lib/armv6k/fpu\libg.a(lib_a-calloc.o)
 .ARM.attributes
                0x0000000000000c12       0x30 c:/devkitpro/devkitarm/bin/../lib/gcc/arm-none-eabi/10.2.0/../../../../arm-none-eabi/lib/armv6k/fpu\libg.a(lib_a-callocr.o)
 .ARM.attributes
                0x0000000000000c42       0x30 c:/devkitpro/devkitarm/bin/../lib/gcc/arm-none-eabi/10.2.0/../../../../arm-none-eabi/lib/armv6k/fpu\libg.a(lib_a-exit.o)
 .ARM.attributes
                0x0000000000000c72       0x30 c:/devkitpro/devkitarm/bin/../lib/gcc/arm-none-eabi/10.2.0/../../../../arm-none-eabi/lib/armv6k/fpu\libg.a(lib_a-fini.o)
 .ARM.attributes
                0x0000000000000ca2       0x2e c:/devkitpro/devkitarm/bin/../lib/gcc/arm-none-eabi/10.2.0/../../../../arm-none-eabi/lib/armv6k/fpu\libg.a(lib_a-impure.o)
 .ARM.attributes
                0x0000000000000cd0       0x30 c:/devkitpro/devkitarm/bin/../lib/gcc/arm-none-eabi/10.2.0/../../../../arm-none-eabi/lib/armv6k/fpu\libg.a(lib_a-init.o)
 .ARM.attributes
                0x0000000000000d00       0x30 c:/devkitpro/devkitarm/bin/../lib/gcc/arm-none-eabi/10.2.0/../../../../arm-none-eabi/lib/armv6k/fpu\libg.a(lib_a-malign.o)
 .ARM.attributes
                0x0000000000000d30       0x30 c:/devkitpro/devkitarm/bin/../lib/gcc/arm-none-eabi/10.2.0/../../../../arm-none-eabi/lib/armv6k/fpu\libg.a(lib_a-malignr.o)
 .ARM.attributes
                0x0000000000000d60       0x30 c:/devkitpro/devkitarm/bin/../lib/gcc/arm-none-eabi/10.2.0/../../../../arm-none-eabi/lib/armv6k/fpu\libg.a(lib_a-malloc.o)
 .ARM.attributes
                0x0000000000000d90       0x30 c:/devkitpro/devkitarm/bin/../lib/gcc/arm-none-eabi/10.2.0/../../../../arm-none-eabi/lib/armv6k/fpu\libg.a(lib_a-mallocr.o)
 .ARM.attributes
                0x0000000000000dc0       0x30 c:/devkitpro/devkitarm/bin/../lib/gcc/arm-none-eabi/10.2.0/../../../../arm-none-eabi/lib/armv6k/fpu\libg.a(lib_a-memcpy-stub.o)
 .ARM.attributes
                0x0000000000000df0       0x30 c:/devkitpro/devkitarm/bin/../lib/gcc/arm-none-eabi/10.2.0/../../../../arm-none-eabi/lib/armv6k/fpu\libg.a(lib_a-memset.o)
 .ARM.attributes
                0x0000000000000e20       0x30 c:/devkitpro/devkitarm/bin/../lib/gcc/arm-none-eabi/10.2.0/../../../../arm-none-eabi/lib/armv6k/fpu\libg.a(lib_a-mlock.o)
 .ARM.attributes
                0x0000000000000e50       0x1a c:/devkitpro/devkitarm/bin/../lib/gcc/arm-none-eabi/10.2.0/../../../../arm-none-eabi/lib/armv6k/fpu\libg.a(lib_a-strcmp.o)
 .ARM.attributes
                0x0000000000000e6a       0x30 c:/devkitpro/devkitarm/bin/../lib/gcc/arm-none-eabi/10.2.0/../../../../arm-none-eabi/lib/armv6k/fpu\libg.a(lib_a-strlen-stub.o)
 .ARM.attributes
                0x0000000000000e9a       0x30 c:/devkitpro/devkitarm/bin/../lib/gcc/arm-none-eabi/10.2.0/../../../../arm-none-eabi/lib/armv6k/fpu\libg.a(lib_a-strncat.o)
 .ARM.attributes
                0x0000000000000eca       0x30 c:/devkitpro/devkitarm/bin/../lib/gcc/arm-none-eabi/10.2.0/../../../../arm-none-eabi/lib/armv6k/fpu\libg.a(lib_a-strncmp.o)
 .ARM.attributes
                0x0000000000000efa       0x30 c:/devkitpro/devkitarm/bin/../lib/gcc/arm-none-eabi/10.2.0/../../../../arm-none-eabi/lib/armv6k/fpu\libg.a(lib_a-strncpy.o)
 .ARM.attributes
                0x0000000000000f2a       0x30 c:/devkitpro/devkitarm/bin/../lib/gcc/arm-none-eabi/10.2.0/../../../../arm-none-eabi/lib/armv6k/fpu\libg.a(lib_a-strnlen.o)
 .ARM.attributes
                0x0000000000000f5a       0x30 c:/devkitpro/devkitarm/bin/../lib/gcc/arm-none-eabi/10.2.0/../../../../arm-none-eabi/lib/armv6k/fpu\libg.a(lib_a-__call_atexit.o)
 .ARM.attributes
                0x0000000000000f8a       0x30 c:/devkitpro/devkitarm/bin/../lib/gcc/arm-none-eabi/10.2.0/../../../../arm-none-eabi/lib/armv6k/fpu\libg.a(lib_a-freer.o)
 .ARM.attributes
                0x0000000000000fba       0x30 c:/devkitpro/devkitarm/bin/../lib/gcc/arm-none-eabi/10.2.0/../../../../arm-none-eabi/lib/armv6k/fpu\libsysbase.a(iosupport.o)
 .ARM.attributes
                0x0000000000000fea       0x30 c:/devkitpro/devkitarm/bin/../lib/gcc/arm-none-eabi/10.2.0/../../../../arm-none-eabi/lib/armv6k/fpu\libsysbase.a(sbrk.o)
 .ARM.attributes
                0x000000000000101a       0x30 c:/devkitpro/devkitarm/bin/../lib/gcc/arm-none-eabi/10.2.0/../../../../arm-none-eabi/lib/armv6k/fpu\libsysbase.a(_exit.o)
 .ARM.attributes
                0x000000000000104a       0x2e c:/devkitpro/devkitarm/bin/../lib/gcc/arm-none-eabi/10.2.0/../../../../arm-none-eabi/lib/armv6k/fpu\libsysbase.a(malloc_vars.o)
 .ARM.attributes
                0x0000000000001078       0x30 c:/devkitpro/devkitarm/bin/../lib/gcc/arm-none-eabi/10.2.0/../../../../arm-none-eabi/lib/armv6k/fpu\libsysbase.a(chdir.o)
 .ARM.attributes
                0x00000000000010a8       0x30 c:/devkitpro/devkitarm/bin/../lib/gcc/arm-none-eabi/10.2.0/../../../../arm-none-eabi/lib/armv6k/fpu\libsysbase.a(syscall_support.o)
 .ARM.attributes
                0x00000000000010d8       0x30 c:/devkitpro/devkitarm/bin/../lib/gcc/arm-none-eabi/10.2.0/../../../../arm-none-eabi/lib/armv6k/fpu\libsysbase.a(getreent.o)
 .ARM.attributes
                0x0000000000001108       0x1c c:/devkitpro/devkitarm/bin/../lib/gcc/arm-none-eabi/10.2.0/armv6k/fpu\libgcc.a(_udivsi3.o)
 .ARM.attributes
                0x0000000000001124       0x30 c:/devkitpro/devkitarm/bin/../lib/gcc/arm-none-eabi/10.2.0/../../../../arm-none-eabi/lib/armv6k/fpu\libg.a(lib_a-ctype_.o)
 .ARM.attributes
                0x0000000000001154       0x30 c:/devkitpro/devkitarm/bin/../lib/gcc/arm-none-eabi/10.2.0/../../../../arm-none-eabi/lib/armv6k/fpu\libg.a(lib_a-strchr.o)
 .ARM.attributes
                0x0000000000001184       0x30 c:/devkitpro/devkitarm/bin/../lib/gcc/arm-none-eabi/10.2.0/../../../../arm-none-eabi/lib/armv6k/fpu\libg.a(lib_a-strrchr.o)
 .ARM.attributes
                0x00000000000011b4       0x1c c:/devkitpro/devkitarm/bin/../lib/gcc/arm-none-eabi/10.2.0/armv6k/fpu/crtn.o

.debug_ranges   0x0000000000000000     0xbaa8
 .debug_ranges  0x0000000000000000      0x170 main.o
 .debug_ranges  0x0000000000000170      0x158 C:/devkitPro/libctru/lib\libcitro3d.a(base.o)
 .debug_ranges  0x00000000000002c8      0x560 C:/devkitPro/libctru/lib\libcitro3d.a(renderqueue.o)
 .debug_ranges  0x0000000000000828      0x390 C:/devkitPro/libctru/lib\libcitro3d.a(texture.o)
 .debug_ranges  0x0000000000000bb8      0x188 C:/devkitPro/libctru/lib\libcitro3d.a(framebuffer.o)
 .debug_ranges  0x0000000000000d40       0x38 C:/devkitPro/libctru/lib\libcitro3d.a(texenv.o)
 .debug_ranges  0x0000000000000d78       0x48 C:/devkitPro/libctru/lib\libcitro3d.a(buffers.o)
 .debug_ranges  0x0000000000000dc0       0x88 C:/devkitPro/libctru/lib\libcitro3d.a(drawArrays.o)
 .debug_ranges  0x0000000000000e48      0x338 C:/devkitPro/libctru/lib\libcitro3d.a(effect.o)
 .debug_ranges  0x0000000000001180       0x68 C:/devkitPro/libctru/lib\libcitro3d.a(attribs.o)
 .debug_ranges  0x00000000000011e8       0x50 C:/devkitPro/libctru/lib\libcitro3d.a(immediate.o)
 .debug_ranges  0x0000000000001238       0xb0 C:/devkitPro/libctru/lib\libcitro3d.a(uniforms.o)
 .debug_ranges  0x00000000000012e8       0x30 C:/devkitPro/libctru/lib\libcitro3d.a(mtx_orthotilt.o)
 .debug_ranges  0x0000000000001318       0xd8 C:/devkitPro/libctru/lib\libctru.a(vram.o)
 .debug_ranges  0x00000000000013f0       0xe0 C:/devkitPro/libctru/lib\libctru.a(linear.o)
 .debug_ranges  0x00000000000014d0      0x268 C:/devkitPro/libctru/lib\libctru.a(mem_pool.o)
 .debug_ranges  0x0000000000001738       0xc8 C:/devkitPro/libctru/lib\libctru.a(os.o)
 .debug_ranges  0x0000000000001800      0x190 C:/devkitPro/libctru/lib\libctru.a(gfx.o)
 .debug_ranges  0x0000000000001990      0x400 C:/devkitPro/libctru/lib\libctru.a(shaderProgram.o)
 .debug_ranges  0x0000000000001d90       0x88 C:/devkitPro/libctru/lib\libctru.a(shbin.o)
 .debug_ranges  0x0000000000001e18      0x138 C:/devkitPro/libctru/lib\libctru.a(gx.o)
 .debug_ranges  0x0000000000001f50       0x58 C:/devkitPro/libctru/lib\libctru.a(gxqueue.o)
 .debug_ranges  0x0000000000001fa8       0x80 C:/devkitPro/libctru/lib\libctru.a(gpu.o)
 .debug_ranges  0x0000000000002028     0x3178 C:/devkitPro/libctru/lib\libctru.a(gspgpu.o)
 .debug_ranges  0x00000000000051a0     0x13e0 C:/devkitPro/libctru/lib\libctru.a(apt.o)
 .debug_ranges  0x0000000000006580      0x1f8 C:/devkitPro/libctru/lib\libctru.a(hid.o)
 .debug_ranges  0x0000000000006778      0x220 C:/devkitPro/libctru/lib\libctru.a(ptmsysm.o)
 .debug_ranges  0x0000000000006998       0x10 C:/devkitPro/libctru/lib\libctru.a(rbtree_init.o)
 .debug_ranges  0x00000000000069a8      0x208 C:/devkitPro/libctru/lib\libctru.a(rbtree_insert.o)
 .debug_ranges  0x0000000000006bb0       0x80 C:/devkitPro/libctru/lib\libctru.a(rbtree_rotate.o)
 .debug_ranges  0x0000000000006c30      0x2c8 C:/devkitPro/libctru/lib\libctru.a(rbtree_remove.o)
 .debug_ranges  0x0000000000006ef8       0x30 C:/devkitPro/libctru/lib\libctru.a(rbtree_find.o)
 .debug_ranges  0x0000000000006f28       0x10 C:/devkitPro/libctru/lib\libctru.a(allocateHeaps.o)
 .debug_ranges  0x0000000000006f38       0x10 C:/devkitPro/libctru/lib\libctru.a(ctru_init.o)
 .debug_ranges  0x0000000000006f48       0x28 C:/devkitPro/libctru/lib\libctru.a(initArgv.o)
 .debug_ranges  0x0000000000006f70      0x328 C:/devkitPro/libctru/lib\libctru.a(svc.o)
 .debug_ranges  0x0000000000007298       0x20 C:/devkitPro/libctru/lib\libctru.a(stack_adjust.o)
 .debug_ranges  0x00000000000072b8      0x6e8 C:/devkitPro/libctru/lib\libctru.a(synchronization.o)
 .debug_ranges  0x00000000000079a0      0x378 C:/devkitPro/libctru/lib\libctru.a(srv.o)
 .debug_ranges  0x0000000000007d18      0x130 C:/devkitPro/libctru/lib\libctru.a(thread.o)
 .debug_ranges  0x0000000000007e48       0x50 C:/devkitPro/libctru/lib\libctru.a(mappable.o)
 .debug_ranges  0x0000000000007e98      0x188 C:/devkitPro/libctru/lib\libctru.a(irrst.o)
 .debug_ranges  0x0000000000008020      0x1e0 C:/devkitPro/libctru/lib\libctru.a(srvpm.o)
 .debug_ranges  0x0000000000008200       0x78 C:/devkitPro/libctru/lib\libctru.a(rbtree_iterator.o)
 .debug_ranges  0x0000000000008278       0x10 C:/devkitPro/libctru/lib\libctru.a(appInit.o)
 .debug_ranges  0x0000000000008288       0x58 C:/devkitPro/libctru/lib\libctru.a(syscalls.o)
 .debug_ranges  0x00000000000082e0       0x10 C:/devkitPro/libctru/lib\libctru.a(appExit.o)
 .debug_ranges  0x00000000000082f0       0x10 C:/devkitPro/libctru/lib\libctru.a(ctru_exit.o)
 .debug_ranges  0x0000000000008300       0x18 C:/devkitPro/libctru/lib\libctru.a(env.o)
 .debug_ranges  0x0000000000008318      0x290 C:/devkitPro/libctru/lib\libctru.a(archive_dev.o)
 .debug_ranges  0x00000000000085a8     0x34a0 C:/devkitPro/libctru/lib\libctru.a(fs.o)
 .debug_ranges  0x000000000000ba48       0x10 C:/devkitPro/libctru/lib\libctru.a(utf16_to_utf8.o)
 .debug_ranges  0x000000000000ba58       0x10 C:/devkitPro/libctru/lib\libctru.a(decode_utf16.o)
 .debug_ranges  0x000000000000ba68       0x10 C:/devkitPro/libctru/lib\libctru.a(decode_utf8.o)
 .debug_ranges  0x000000000000ba78       0x10 C:/devkitPro/libctru/lib\libctru.a(utf8_to_utf16.o)
 .debug_ranges  0x000000000000ba88       0x10 C:/devkitPro/libctru/lib\libctru.a(encode_utf16.o)
 .debug_ranges  0x000000000000ba98       0x10 C:/devkitPro/libctru/lib\libctru.a(encode_utf8.o)
